

Microchip MPLAB XC8 Assembler V2.10 build 88905656 
                                                                                               Wed Mar 11 12:19:03 2020

Microchip MPLAB XC8 C Compiler v2.10 (Free license) build 20190730164152 Og1 
     1                           	processor	16F887
     2                           	opt	pw 120
     3                           	opt	flic
     4                           	psect	cinit,global,class=CODE,merge=1,delta=2
     5                           	psect	bssCOMMON,global,class=COMMON,space=1,delta=1
     6                           	psect	bssBANK0,global,class=BANK0,space=1,delta=1
     7                           	psect	cstackCOMMON,global,class=COMMON,space=1,delta=1
     8                           	psect	cstackBANK0,global,class=BANK0,space=1,delta=1
     9                           	psect	maintext,global,class=CODE,split=1,delta=2
    10                           	psect	text1,local,class=CODE,merge=1,delta=2
    11                           	psect	text2,local,class=CODE,merge=1,delta=2
    12                           	psect	text3,local,class=CODE,merge=1,delta=2
    13                           	psect	text4,local,class=CODE,merge=1,delta=2,group=1
    14                           	psect	text5,local,class=CODE,merge=1,delta=2,group=1
    15                           	psect	text6,local,class=CODE,merge=1,delta=2,group=1
    16                           	psect	text7,local,class=CODE,merge=1,delta=2,group=1
    17                           	psect	text8,local,class=CODE,merge=1,delta=2
    18                           	psect	text9,local,class=CODE,merge=1,delta=2
    19                           	psect	text10,local,class=CODE,merge=1,delta=2
    20                           	psect	intentry,global,class=CODE,delta=2
    21                           	dabs	1,0x7E,2
    22  0000                     
    23                           ; Version 2.10
    24                           ; Generated 31/07/2019 GMT
    25                           ; 
    26                           ; Copyright © 2019, Microchip Technology Inc. and its subsidiaries ("Microchip")
    27                           ; All rights reserved.
    28                           ; 
    29                           ; This software is developed by Microchip Technology Inc. and its subsidiaries ("Microch
      +                          ip").
    30                           ; 
    31                           ; Redistribution and use in source and binary forms, with or without modification, are
    32                           ; permitted provided that the following conditions are met:
    33                           ; 
    34                           ;     1. Redistributions of source code must retain the above copyright notice, this lis
      +                          t of
    35                           ;        conditions and the following disclaimer.
    36                           ; 
    37                           ;     2. Redistributions in binary form must reproduce the above copyright notice, this 
      +                          list
    38                           ;        of conditions and the following disclaimer in the documentation and/or other
    39                           ;        materials provided with the distribution.
    40                           ; 
    41                           ;     3. Microchip's name may not be used to endorse or promote products derived from th
      +                          is
    42                           ;        software without specific prior written permission.
    43                           ; 
    44                           ; THIS SOFTWARE IS PROVIDED BY MICROCHIP "AS IS" AND ANY EXPRESS OR IMPLIED WARRANTIES,
    45                           ; INCLUDING, BUT NOT LIMITED TO, THE IMPLIED WARRANTIES OF MERCHANTABILITY AND FITNESS F
      +                          OR
    46                           ; PURPOSE ARE DISCLAIMED.  IN NO EVENT SHALL MICROCHIP BE LIABLE FOR ANY DIRECT, INDIREC
      +                          T,
    47                           ; INCIDENTAL, SPECIAL, EXEMPLARY, OR CONSEQUENTIAL DAMAGES (INCLUDING BUT NOT LIMITED TO
    48                           ; PROCUREMENT OF SUBSTITUTE GOODS OR SERVICES; LOSS OF USE, DATA OR PROFITS; OR BUSINESS
    49                           ; INTERRUPTION) HOWSOEVER CAUSED AND ON ANY THEORY OF LIABILITY, WHETHER IN CONTRACT, ST
      +                          RICT
    50                           ; LIABILITY, OR TORT (INCLUDING NEGLIGENCE OR OTHERWISE) ARISING IN ANY WAY OUT OF THE U
      +                          SE OF
    51                           ; THIS SOFTWARE, EVEN IF ADVISED OF THE POSSIBILITY OF SUCH DAMAGE.
    52                           ; 
    53                           ; 
    54                           ; Code-generator required, PIC16F887 Definitions
    55                           ; 
    56                           ; SFR Addresses
    57  0000                     	;# 
    58  0001                     	;# 
    59  0002                     	;# 
    60  0003                     	;# 
    61  0004                     	;# 
    62  0005                     	;# 
    63  0006                     	;# 
    64  0007                     	;# 
    65  0008                     	;# 
    66  0009                     	;# 
    67  000A                     	;# 
    68  000B                     	;# 
    69  000C                     	;# 
    70  000D                     	;# 
    71  000E                     	;# 
    72  000E                     	;# 
    73  000F                     	;# 
    74  0010                     	;# 
    75  0011                     	;# 
    76  0012                     	;# 
    77  0013                     	;# 
    78  0014                     	;# 
    79  0015                     	;# 
    80  0015                     	;# 
    81  0016                     	;# 
    82  0017                     	;# 
    83  0018                     	;# 
    84  0019                     	;# 
    85  001A                     	;# 
    86  001B                     	;# 
    87  001B                     	;# 
    88  001C                     	;# 
    89  001D                     	;# 
    90  001E                     	;# 
    91  001F                     	;# 
    92  0081                     	;# 
    93  0085                     	;# 
    94  0086                     	;# 
    95  0087                     	;# 
    96  0088                     	;# 
    97  0089                     	;# 
    98  008C                     	;# 
    99  008D                     	;# 
   100  008E                     	;# 
   101  008F                     	;# 
   102  0090                     	;# 
   103  0091                     	;# 
   104  0092                     	;# 
   105  0093                     	;# 
   106  0093                     	;# 
   107  0093                     	;# 
   108  0094                     	;# 
   109  0095                     	;# 
   110  0096                     	;# 
   111  0097                     	;# 
   112  0098                     	;# 
   113  0099                     	;# 
   114  009A                     	;# 
   115  009B                     	;# 
   116  009C                     	;# 
   117  009D                     	;# 
   118  009E                     	;# 
   119  009F                     	;# 
   120  0105                     	;# 
   121  0107                     	;# 
   122  0108                     	;# 
   123  0109                     	;# 
   124  010C                     	;# 
   125  010C                     	;# 
   126  010D                     	;# 
   127  010E                     	;# 
   128  010F                     	;# 
   129  0185                     	;# 
   130  0187                     	;# 
   131  0188                     	;# 
   132  0189                     	;# 
   133  018C                     	;# 
   134  018D                     	;# 
   135  0000                     	;# 
   136  0001                     	;# 
   137  0002                     	;# 
   138  0003                     	;# 
   139  0004                     	;# 
   140  0005                     	;# 
   141  0006                     	;# 
   142  0007                     	;# 
   143  0008                     	;# 
   144  0009                     	;# 
   145  000A                     	;# 
   146  000B                     	;# 
   147  000C                     	;# 
   148  000D                     	;# 
   149  000E                     	;# 
   150  000E                     	;# 
   151  000F                     	;# 
   152  0010                     	;# 
   153  0011                     	;# 
   154  0012                     	;# 
   155  0013                     	;# 
   156  0014                     	;# 
   157  0015                     	;# 
   158  0015                     	;# 
   159  0016                     	;# 
   160  0017                     	;# 
   161  0018                     	;# 
   162  0019                     	;# 
   163  001A                     	;# 
   164  001B                     	;# 
   165  001B                     	;# 
   166  001C                     	;# 
   167  001D                     	;# 
   168  001E                     	;# 
   169  001F                     	;# 
   170  0081                     	;# 
   171  0085                     	;# 
   172  0086                     	;# 
   173  0087                     	;# 
   174  0088                     	;# 
   175  0089                     	;# 
   176  008C                     	;# 
   177  008D                     	;# 
   178  008E                     	;# 
   179  008F                     	;# 
   180  0090                     	;# 
   181  0091                     	;# 
   182  0092                     	;# 
   183  0093                     	;# 
   184  0093                     	;# 
   185  0093                     	;# 
   186  0094                     	;# 
   187  0095                     	;# 
   188  0096                     	;# 
   189  0097                     	;# 
   190  0098                     	;# 
   191  0099                     	;# 
   192  009A                     	;# 
   193  009B                     	;# 
   194  009C                     	;# 
   195  009D                     	;# 
   196  009E                     	;# 
   197  009F                     	;# 
   198  0105                     	;# 
   199  0107                     	;# 
   200  0108                     	;# 
   201  0109                     	;# 
   202  010C                     	;# 
   203  010C                     	;# 
   204  010D                     	;# 
   205  010E                     	;# 
   206  010F                     	;# 
   207  0185                     	;# 
   208  0187                     	;# 
   209  0188                     	;# 
   210  0189                     	;# 
   211  018C                     	;# 
   212  018D                     	;# 
   213  0000                     	;# 
   214  0001                     	;# 
   215  0002                     	;# 
   216  0003                     	;# 
   217  0004                     	;# 
   218  0005                     	;# 
   219  0006                     	;# 
   220  0007                     	;# 
   221  0008                     	;# 
   222  0009                     	;# 
   223  000A                     	;# 
   224  000B                     	;# 
   225  000C                     	;# 
   226  000D                     	;# 
   227  000E                     	;# 
   228  000E                     	;# 
   229  000F                     	;# 
   230  0010                     	;# 
   231  0011                     	;# 
   232  0012                     	;# 
   233  0013                     	;# 
   234  0014                     	;# 
   235  0015                     	;# 
   236  0015                     	;# 
   237  0016                     	;# 
   238  0017                     	;# 
   239  0018                     	;# 
   240  0019                     	;# 
   241  001A                     	;# 
   242  001B                     	;# 
   243  001B                     	;# 
   244  001C                     	;# 
   245  001D                     	;# 
   246  001E                     	;# 
   247  001F                     	;# 
   248  0081                     	;# 
   249  0085                     	;# 
   250  0086                     	;# 
   251  0087                     	;# 
   252  0088                     	;# 
   253  0089                     	;# 
   254  008C                     	;# 
   255  008D                     	;# 
   256  008E                     	;# 
   257  008F                     	;# 
   258  0090                     	;# 
   259  0091                     	;# 
   260  0092                     	;# 
   261  0093                     	;# 
   262  0093                     	;# 
   263  0093                     	;# 
   264  0094                     	;# 
   265  0095                     	;# 
   266  0096                     	;# 
   267  0097                     	;# 
   268  0098                     	;# 
   269  0099                     	;# 
   270  009A                     	;# 
   271  009B                     	;# 
   272  009C                     	;# 
   273  009D                     	;# 
   274  009E                     	;# 
   275  009F                     	;# 
   276  0105                     	;# 
   277  0107                     	;# 
   278  0108                     	;# 
   279  0109                     	;# 
   280  010C                     	;# 
   281  010C                     	;# 
   282  010D                     	;# 
   283  010E                     	;# 
   284  010F                     	;# 
   285  0185                     	;# 
   286  0187                     	;# 
   287  0188                     	;# 
   288  0189                     	;# 
   289  018C                     	;# 
   290  018D                     	;# 
   291  000E                     _TMR1	set	14
   292  0014                     _SSPCON	set	20
   293  0012                     _T2CONbits	set	18
   294  0017                     _CCP1CONbits	set	23
   295  001E                     _ADRESH	set	30
   296  0015                     _CCPR1L	set	21
   297  001F                     _ADCON0bits	set	31
   298  0005                     _PORTA	set	5
   299  0009                     _PORTE	set	9
   300  0007                     _PORTC	set	7
   301  0006                     _PORTB	set	6
   302  0008                     _PORTD	set	8
   303  0013                     _SSPBUF	set	19
   304  0014                     _SSPCONbits	set	20
   305  000C                     _PIR1bits	set	12
   306  0063                     _SSPIF	set	99
   307  005E                     _PEIE	set	94
   308  005F                     _GIE	set	95
   309  0080                     _TMR1ON	set	128
   310  0041                     _RD1	set	65
   311  0040                     _RD0	set	64
   312  0061                     _TMR2IF	set	97
   313  0091                     _SSPCON2bits	set	145
   314  0094                     _SSPSTAT	set	148
   315  0093                     _SSPADD	set	147
   316  0091                     _SSPCON2	set	145
   317  0092                     _PR2	set	146
   318  0087                     _TRISCbits	set	135
   319  009F                     _ADCON1bits	set	159
   320  0089                     _TRISE	set	137
   321  0088                     _TRISD	set	136
   322  0087                     _TRISC	set	135
   323  0086                     _TRISB	set	134
   324  0085                     _TRISA	set	133
   325  008F                     _OSCCONbits	set	143
   326  0094                     _SSPSTATbits	set	148
   327  0463                     _SSPIE	set	1123
   328  043C                     _TRISC4	set	1084
   329  043B                     _TRISC3	set	1083
   330  043A                     _TRISC2	set	1082
   331  04A0                     _BF	set	1184
   332  0189                     _ANSELH	set	393
   333  0188                     _ANSEL	set	392
   334                           
   335                           ; #config settings
   336  0000                     
   337                           	psect	cinit
   338  000F                     start_initialization:	
   339  000F                     __initialization:	
   340                           
   341                           ; Clear objects allocated to COMMON
   342  000F  01F9               	clrf	__pbssCOMMON& (0+127)
   343  0010  01FA               	clrf	(__pbssCOMMON+1)& (0+127)
   344                           
   345                           ; Clear objects allocated to BANK0
   346  0011  1283               	bcf	3,5	;RP0=0, select bank0
   347  0012  1303               	bcf	3,6	;RP1=0, select bank0
   348  0013  01DC               	clrf	__pbssBANK0& (0+127)
   349  0014  01DD               	clrf	(__pbssBANK0+1)& (0+127)
   350  0015  01DE               	clrf	(__pbssBANK0+2)& (0+127)
   351  0016  01DF               	clrf	(__pbssBANK0+3)& (0+127)
   352  0017                     end_of_initialization:	
   353                           ;End of C runtime variable initialization code
   354                           
   355  0017                     __end_of__initialization:	
   356  0017  0183               	clrf	3
   357  0018  120A  118A  2CA2   	ljmp	_main	;jump to C main() function
   358                           
   359                           	psect	bssCOMMON
   360  0079                     __pbssCOMMON:	
   361  0079                     _distance:	
   362  0079                     	ds	1
   363  007A                     _z:	
   364  007A                     	ds	1
   365                           
   366                           	psect	bssBANK0
   367  005C                     __pbssBANK0:	
   368  005C                     _S1:	
   369  005C                     	ds	1
   370  005D                     _dist:	
   371  005D                     	ds	1
   372  005E                     _ultrasonico:	
   373  005E                     	ds	1
   374  005F                     _ADC:	
   375  005F                     	ds	1
   376                           
   377                           	psect	cstackCOMMON
   378  0070                     __pcstackCOMMON:	
   379  0070                     ?_I2C_Slave_Init:	
   380  0070                     ?_PWM:	
   381                           ; 1 bytes @ 0x0
   382                           
   383  0070                     ?_LOOP:	
   384                           ; 1 bytes @ 0x0
   385                           
   386  0070                     ?_ANALOGICO:	
   387                           ; 1 bytes @ 0x0
   388                           
   389  0070                     ?_isr:	
   390                           ; 1 bytes @ 0x0
   391                           
   392  0070                     ??_isr:	
   393                           ; 1 bytes @ 0x0
   394                           
   395  0070                     ?_main:	
   396                           ; 1 bytes @ 0x0
   397                           
   398                           
   399                           ; 1 bytes @ 0x0
   400  0070                     	ds	3
   401  0073                     ??_I2C_Slave_Init:	
   402  0073                     ??_PWM:	
   403                           ; 1 bytes @ 0x3
   404                           
   405  0073                     ??_ANALOGICO:	
   406                           ; 1 bytes @ 0x3
   407                           
   408  0073                     ?___xxtofl:	
   409                           ; 1 bytes @ 0x3
   410                           
   411  0073                     I2C_Slave_Init@address:	
   412                           ; 4 bytes @ 0x3
   413                           
   414  0073                     ___xxtofl@val:	
   415                           ; 1 bytes @ 0x3
   416                           
   417                           
   418                           ; 4 bytes @ 0x3
   419  0073                     	ds	4
   420  0077                     ___fltol@sign1:	
   421                           
   422                           ; 1 bytes @ 0x7
   423  0077                     	ds	1
   424  0078                     ___fltol@exp1:	
   425                           
   426                           ; 1 bytes @ 0x8
   427  0078                     	ds	1
   428  0079                     ??_main:	
   429                           
   430                           	psect	cstackBANK0
   431  0020                     __pcstackBANK0:	
   432                           ; 1 bytes @ 0x9
   433                           
   434  0020                     ??___xxtofl:	
   435                           
   436                           ; 1 bytes @ 0x0
   437  0020                     	ds	4
   438  0024                     ___xxtofl@sign:	
   439                           
   440                           ; 1 bytes @ 0x4
   441  0024                     	ds	1
   442  0025                     ___xxtofl@exp:	
   443                           
   444                           ; 1 bytes @ 0x5
   445  0025                     	ds	1
   446  0026                     ___xxtofl@arg:	
   447                           
   448                           ; 4 bytes @ 0x6
   449  0026                     	ds	4
   450  002A                     ?___fldiv:	
   451  002A                     ___fldiv@a:	
   452                           ; 4 bytes @ 0xA
   453                           
   454                           
   455                           ; 4 bytes @ 0xA
   456  002A                     	ds	4
   457  002E                     ___fldiv@b:	
   458                           
   459                           ; 4 bytes @ 0xE
   460  002E                     	ds	4
   461  0032                     ??___fldiv:	
   462                           
   463                           ; 1 bytes @ 0x12
   464  0032                     	ds	5
   465  0037                     ___fldiv@rem:	
   466                           
   467                           ; 4 bytes @ 0x17
   468  0037                     	ds	4
   469  003B                     ___fldiv@sign:	
   470                           
   471                           ; 1 bytes @ 0x1B
   472  003B                     	ds	1
   473  003C                     ___fldiv@new_exp:	
   474                           
   475                           ; 2 bytes @ 0x1C
   476  003C                     	ds	2
   477  003E                     ___fldiv@grs:	
   478                           
   479                           ; 4 bytes @ 0x1E
   480  003E                     	ds	4
   481  0042                     ___fldiv@bexp:	
   482                           
   483                           ; 1 bytes @ 0x22
   484  0042                     	ds	1
   485  0043                     ___fldiv@aexp:	
   486                           
   487                           ; 1 bytes @ 0x23
   488  0043                     	ds	1
   489  0044                     ?___fltol:	
   490  0044                     ___fltol@f1:	
   491                           ; 4 bytes @ 0x24
   492                           
   493                           
   494                           ; 4 bytes @ 0x24
   495  0044                     	ds	4
   496  0048                     ??___fltol:	
   497                           
   498                           ; 1 bytes @ 0x28
   499  0048                     	ds	5
   500  004D                     ?_calc_dist:	
   501                           
   502                           ; 2 bytes @ 0x2D
   503  004D                     	ds	2
   504  004F                     ??_calc_dist:	
   505                           
   506                           ; 1 bytes @ 0x2F
   507  004F                     	ds	1
   508  0050                     calc_dist@distance:	
   509                           
   510                           ; 2 bytes @ 0x30
   511  0050                     	ds	2
   512  0052                     ?___awdiv:	
   513  0052                     ___awdiv@divisor:	
   514                           ; 2 bytes @ 0x32
   515                           
   516                           
   517                           ; 2 bytes @ 0x32
   518  0052                     	ds	2
   519  0054                     ___awdiv@dividend:	
   520                           
   521                           ; 2 bytes @ 0x34
   522  0054                     	ds	2
   523  0056                     ??___awdiv:	
   524                           
   525                           ; 1 bytes @ 0x36
   526  0056                     	ds	1
   527  0057                     ___awdiv@counter:	
   528                           
   529                           ; 1 bytes @ 0x37
   530  0057                     	ds	1
   531  0058                     ___awdiv@sign:	
   532                           
   533                           ; 1 bytes @ 0x38
   534  0058                     	ds	1
   535  0059                     ___awdiv@quotient:	
   536                           
   537                           ; 2 bytes @ 0x39
   538  0059                     	ds	2
   539  005B                     ??_LOOP:	
   540                           
   541                           ; 1 bytes @ 0x3B
   542  005B                     	ds	1
   543                           
   544                           	psect	maintext
   545  04A2                     __pmaintext:	
   546 ;;
   547 ;;Main: autosize = 0, tempsize = 0, incstack = 0, save=0
   548 ;;
   549 ;; *************** function _main *****************
   550 ;; Defined at:
   551 ;;		line 89 in file "TEMP_SLAVE.c"
   552 ;; Parameters:    Size  Location     Type
   553 ;;		None
   554 ;; Auto vars:     Size  Location     Type
   555 ;;		None
   556 ;; Return value:  Size  Location     Type
   557 ;;                  1    wreg      void 
   558 ;; Registers used:
   559 ;;		wreg, status,2, status,0, btemp+1, pclath, cstack
   560 ;; Tracked objects:
   561 ;;		On entry : B00/0
   562 ;;		On exit  : 0/0
   563 ;;		Unchanged: 0/0
   564 ;; Data sizes:     COMMON   BANK0   BANK1   BANK3   BANK2
   565 ;;      Params:         0       0       0       0       0
   566 ;;      Locals:         0       0       0       0       0
   567 ;;      Temps:          0       0       0       0       0
   568 ;;      Totals:         0       0       0       0       0
   569 ;;Total ram usage:        0 bytes
   570 ;; Hardware stack levels required when called:    4
   571 ;; This function calls:
   572 ;;		_I2C_Slave_Init
   573 ;;		_LOOP
   574 ;;		_PWM
   575 ;; This function is called by:
   576 ;;		Startup code after reset
   577 ;; This function uses a non-reentrant model
   578 ;;
   579                           
   580                           
   581                           ;psect for function _main
   582  04A2                     _main:	
   583  04A2                     l1790:	
   584                           ;incstack = 0
   585                           ; Regs used in _main: [wreg+status,2+status,0+btemp+1+pclath+cstack]
   586                           
   587                           
   588                           ;TEMP_SLAVE.c: 90:     OSCCONbits.IRCF = 0b100;
   589  04A2  1683               	bsf	3,5	;RP0=1, select bank1
   590  04A3  1303               	bcf	3,6	;RP1=0, select bank1
   591  04A4  080F               	movf	15,w	;volatile
   592  04A5  398F               	andlw	-113
   593  04A6  3840               	iorlw	64
   594  04A7  008F               	movwf	15	;volatile
   595  04A8                     l1792:	
   596                           
   597                           ;TEMP_SLAVE.c: 91:     OSCCONbits.OSTS= 0;
   598  04A8  118F               	bcf	15,3	;volatile
   599  04A9                     l1794:	
   600                           
   601                           ;TEMP_SLAVE.c: 92:     OSCCONbits.HTS = 0;
   602  04A9  110F               	bcf	15,2	;volatile
   603  04AA                     l1796:	
   604                           
   605                           ;TEMP_SLAVE.c: 93:     OSCCONbits.LTS = 0;
   606  04AA  108F               	bcf	15,1	;volatile
   607  04AB                     l1798:	
   608                           
   609                           ;TEMP_SLAVE.c: 94:     OSCCONbits.SCS = 1;
   610  04AB  140F               	bsf	15,0	;volatile
   611  04AC                     l1800:	
   612                           
   613                           ;TEMP_SLAVE.c: 96:     TRISA = 0b00000001;
   614  04AC  3001               	movlw	1
   615  04AD  0085               	movwf	5	;volatile
   616  04AE                     l1802:	
   617                           
   618                           ;TEMP_SLAVE.c: 97:     TRISB = 0;
   619  04AE  0186               	clrf	6	;volatile
   620  04AF                     l1804:	
   621                           
   622                           ;TEMP_SLAVE.c: 98:     TRISC = 0b00011000;
   623  04AF  3018               	movlw	24
   624  04B0  0087               	movwf	7	;volatile
   625  04B1                     l1806:	
   626                           
   627                           ;TEMP_SLAVE.c: 99:     TRISD = 0b00000010;
   628  04B1  3002               	movlw	2
   629  04B2  0088               	movwf	8	;volatile
   630  04B3                     l1808:	
   631                           
   632                           ;TEMP_SLAVE.c: 100:     TRISE = 0;
   633  04B3  0189               	clrf	9	;volatile
   634  04B4                     l1810:	
   635                           
   636                           ;TEMP_SLAVE.c: 101:     ANSEL = 0b00000001;
   637  04B4  3001               	movlw	1
   638  04B5  1683               	bsf	3,5	;RP0=1, select bank3
   639  04B6  1703               	bsf	3,6	;RP1=1, select bank3
   640  04B7  0088               	movwf	8	;volatile
   641  04B8                     l1812:	
   642                           
   643                           ;TEMP_SLAVE.c: 102:     ANSELH = 0;
   644  04B8  0189               	clrf	9	;volatile
   645  04B9                     l1814:	
   646                           
   647                           ;TEMP_SLAVE.c: 103:     PORTB = 0;
   648  04B9  1283               	bcf	3,5	;RP0=0, select bank0
   649  04BA  1303               	bcf	3,6	;RP1=0, select bank0
   650  04BB  0186               	clrf	6	;volatile
   651  04BC                     l1816:	
   652                           
   653                           ;TEMP_SLAVE.c: 104:     PORTC = 0;
   654  04BC  0187               	clrf	7	;volatile
   655  04BD                     l1818:	
   656                           
   657                           ;TEMP_SLAVE.c: 105:     PORTD = 0;
   658  04BD  0188               	clrf	8	;volatile
   659  04BE                     l1820:	
   660                           
   661                           ;TEMP_SLAVE.c: 106:     PORTE = 0;
   662  04BE  0189               	clrf	9	;volatile
   663  04BF                     l1822:	
   664                           
   665                           ;TEMP_SLAVE.c: 107:     PORTA = 0;
   666  04BF  0185               	clrf	5	;volatile
   667                           
   668                           ;TEMP_SLAVE.c: 110:     ADCON0bits.ADCS = 01;
   669  04C0  081F               	movf	31,w	;volatile
   670  04C1  393F               	andlw	-193
   671  04C2  3840               	iorlw	64
   672  04C3  009F               	movwf	31	;volatile
   673  04C4                     l1824:	
   674                           
   675                           ;TEMP_SLAVE.c: 111:     ADCON0bits.ADON = 1;
   676  04C4  141F               	bsf	31,0	;volatile
   677  04C5                     l1826:	
   678                           
   679                           ;TEMP_SLAVE.c: 112:     ADCON1bits.ADFM = 0;
   680  04C5  1683               	bsf	3,5	;RP0=1, select bank1
   681  04C6  1303               	bcf	3,6	;RP1=0, select bank1
   682  04C7  139F               	bcf	31,7	;volatile
   683  04C8                     l1828:	
   684                           
   685                           ;TEMP_SLAVE.c: 113:     ADCON1bits.VCFG0 = 0;
   686  04C8  121F               	bcf	31,4	;volatile
   687  04C9                     l1830:	
   688                           
   689                           ;TEMP_SLAVE.c: 114:     ADCON1bits.VCFG1 = 0;
   690  04C9  129F               	bcf	31,5	;volatile
   691  04CA                     l1832:	
   692                           
   693                           ;TEMP_SLAVE.c: 115:     I2C_Slave_Init(0x20);
   694  04CA  3020               	movlw	32
   695  04CB  120A  118A  24F9  120A  118A  	fcall	_I2C_Slave_Init
   696  04D0                     l1834:	
   697                           
   698                           ;TEMP_SLAVE.c: 116:     PWM();
   699  04D0  120A  118A  24DD  120A  118A  	fcall	_PWM
   700  04D5                     l1836:	
   701                           
   702                           ;TEMP_SLAVE.c: 117:     LOOP();
   703  04D5  120A  118A  2452  120A  118A  	fcall	_LOOP
   704  04DA                     l111:	
   705  04DA  120A  118A  280C   	ljmp	start
   706  04DD                     __end_of_main:	
   707                           
   708                           	psect	text1
   709  04DD                     __ptext1:	
   710 ;; *************** function _PWM *****************
   711 ;; Defined at:
   712 ;;		line 158 in file "TEMP_SLAVE.c"
   713 ;; Parameters:    Size  Location     Type
   714 ;;		None
   715 ;; Auto vars:     Size  Location     Type
   716 ;;		None
   717 ;; Return value:  Size  Location     Type
   718 ;;                  1    wreg      void 
   719 ;; Registers used:
   720 ;;		wreg, status,2, status,0
   721 ;; Tracked objects:
   722 ;;		On entry : 0/0
   723 ;;		On exit  : 0/0
   724 ;;		Unchanged: 0/0
   725 ;; Data sizes:     COMMON   BANK0   BANK1   BANK3   BANK2
   726 ;;      Params:         0       0       0       0       0
   727 ;;      Locals:         0       0       0       0       0
   728 ;;      Temps:          0       0       0       0       0
   729 ;;      Totals:         0       0       0       0       0
   730 ;;Total ram usage:        0 bytes
   731 ;; Hardware stack levels used:    1
   732 ;; Hardware stack levels required when called:    1
   733 ;; This function calls:
   734 ;;		Nothing
   735 ;; This function is called by:
   736 ;;		_main
   737 ;; This function uses a non-reentrant model
   738 ;;
   739                           
   740                           
   741                           ;psect for function _PWM
   742  04DD                     _PWM:	
   743  04DD                     l1096:	
   744                           ;incstack = 0
   745                           ; Regs used in _PWM: [wreg+status,2+status,0]
   746                           
   747                           
   748                           ;TEMP_SLAVE.c: 160:     TRISCbits.TRISC2 = 1;
   749  04DD  1683               	bsf	3,5	;RP0=1, select bank1
   750  04DE  1303               	bcf	3,6	;RP1=0, select bank1
   751  04DF  1507               	bsf	7,2	;volatile
   752  04E0                     l1098:	
   753                           
   754                           ;TEMP_SLAVE.c: 161:     PR2 = 200;
   755  04E0  30C8               	movlw	200
   756  04E1  0092               	movwf	18	;volatile
   757  04E2                     l1100:	
   758                           
   759                           ;TEMP_SLAVE.c: 162:     CCP1CONbits.CCP1M3 = 1;
   760  04E2  1283               	bcf	3,5	;RP0=0, select bank0
   761  04E3  1303               	bcf	3,6	;RP1=0, select bank0
   762  04E4  1597               	bsf	23,3	;volatile
   763  04E5                     l1102:	
   764                           
   765                           ;TEMP_SLAVE.c: 163:     CCP1CONbits.CCP1M2 = 1;
   766  04E5  1517               	bsf	23,2	;volatile
   767  04E6                     l1104:	
   768                           
   769                           ;TEMP_SLAVE.c: 164:     CCP1CONbits.CCP1M1 = 0;
   770  04E6  1097               	bcf	23,1	;volatile
   771  04E7                     l1106:	
   772                           
   773                           ;TEMP_SLAVE.c: 165:     CCP1CONbits.CCP1M0 = 0;
   774  04E7  1017               	bcf	23,0	;volatile
   775                           
   776                           ;TEMP_SLAVE.c: 168:     CCPR1L = 27;
   777  04E8  301B               	movlw	27
   778  04E9  0095               	movwf	21	;volatile
   779  04EA                     l1108:	
   780                           
   781                           ;TEMP_SLAVE.c: 169:     CCP1CONbits.DC1B0 = 1;
   782  04EA  1617               	bsf	23,4	;volatile
   783  04EB                     l1110:	
   784                           
   785                           ;TEMP_SLAVE.c: 170:     CCP1CONbits.DC1B1 = 1;
   786  04EB  1697               	bsf	23,5	;volatile
   787  04EC                     l1112:	
   788                           
   789                           ;TEMP_SLAVE.c: 174:     PIR1bits.TMR2IF = 0;
   790  04EC  108C               	bcf	12,1	;volatile
   791  04ED                     l1114:	
   792                           
   793                           ;TEMP_SLAVE.c: 176:     T2CONbits.T2CKPS = 0b11;
   794  04ED  3003               	movlw	3
   795  04EE  0492               	iorwf	18,f	;volatile
   796  04EF                     l1116:	
   797                           
   798                           ;TEMP_SLAVE.c: 177:     T2CONbits.TMR2ON = 1;
   799  04EF  1512               	bsf	18,2	;volatile
   800  04F0                     l131:	
   801                           ;TEMP_SLAVE.c: 178:     while(!TMR2IF);
   802                           
   803  04F0  1C8C               	btfss	12,1	;volatile
   804  04F1  2CF3               	goto	u671
   805  04F2  2CF4               	goto	u670
   806  04F3                     u671:	
   807  04F3  2CF0               	goto	l131
   808  04F4                     u670:	
   809  04F4                     l133:	
   810                           
   811                           ;TEMP_SLAVE.c: 179:     TMR2IF = 0;
   812  04F4  108C               	bcf	12,1	;volatile
   813                           
   814                           ;TEMP_SLAVE.c: 180:     TRISC2=0;
   815  04F5  1683               	bsf	3,5	;RP0=1, select bank1
   816  04F6  1303               	bcf	3,6	;RP1=0, select bank1
   817  04F7  1107               	bcf	7,2	;volatile
   818  04F8                     l134:	
   819                           ;TEMP_SLAVE.c: 181:     return;
   820                           
   821  04F8  0008               	return
   822  04F9                     __end_of_PWM:	
   823                           
   824                           	psect	text2
   825  0452                     __ptext2:	
   826 ;; *************** function _LOOP *****************
   827 ;; Defined at:
   828 ;;		line 121 in file "TEMP_SLAVE.c"
   829 ;; Parameters:    Size  Location     Type
   830 ;;		None
   831 ;; Auto vars:     Size  Location     Type
   832 ;;		None
   833 ;; Return value:  Size  Location     Type
   834 ;;                  1    wreg      void 
   835 ;; Registers used:
   836 ;;		wreg, status,2, status,0, btemp+1, pclath, cstack
   837 ;; Tracked objects:
   838 ;;		On entry : 0/0
   839 ;;		On exit  : 0/0
   840 ;;		Unchanged: 0/0
   841 ;; Data sizes:     COMMON   BANK0   BANK1   BANK3   BANK2
   842 ;;      Params:         0       0       0       0       0
   843 ;;      Locals:         0       0       0       0       0
   844 ;;      Temps:          0       1       0       0       0
   845 ;;      Totals:         0       1       0       0       0
   846 ;;Total ram usage:        1 bytes
   847 ;; Hardware stack levels used:    1
   848 ;; Hardware stack levels required when called:    3
   849 ;; This function calls:
   850 ;;		_ANALOGICO
   851 ;;		___awdiv
   852 ;;		_calc_dist
   853 ;; This function is called by:
   854 ;;		_main
   855 ;; This function uses a non-reentrant model
   856 ;;
   857                           
   858                           
   859                           ;psect for function _LOOP
   860  0452                     _LOOP:	
   861  0452                     l114:	
   862                           ;incstack = 0
   863                           ; Regs used in _LOOP: [wreg+status,2+status,0+btemp+1+pclath+cstack]
   864                           ;TEMP_SLAVE.c: 122:     while(1){
   865                           
   866  0452                     l1764:	
   867                           
   868                           ;TEMP_SLAVE.c: 123:         ANALOGICO();
   869  0452  120A  118A  2513  120A  118A  	fcall	_ANALOGICO
   870  0457                     l1766:	
   871                           
   872                           ;TEMP_SLAVE.c: 124:         if(ultrasonico == 0x0f){
   873  0457  300F               	movlw	15
   874  0458  1283               	bcf	3,5	;RP0=0, select bank0
   875  0459  1303               	bcf	3,6	;RP1=0, select bank0
   876  045A  065E               	xorwf	_ultrasonico,w
   877  045B  1D03               	btfss	3,2
   878  045C  2C5E               	goto	u1941
   879  045D  2C5F               	goto	u1940
   880  045E                     u1941:	
   881  045E  2C63               	goto	l115
   882  045F                     u1940:	
   883  045F                     l1768:	
   884                           
   885                           ;TEMP_SLAVE.c: 125:             CCPR1L = 25;
   886  045F  3019               	movlw	25
   887  0460  0095               	movwf	21	;volatile
   888  0461                     l1770:	
   889                           
   890                           ;TEMP_SLAVE.c: 126:             S1= 1;
   891  0461  01DC               	clrf	_S1
   892  0462  0ADC               	incf	_S1,f
   893  0463                     l115:	
   894                           ;TEMP_SLAVE.c: 127:         }
   895                           
   896                           
   897                           ;TEMP_SLAVE.c: 128:         if(ADC>=5 & S1 ==1){
   898  0463  3005               	movlw	5
   899  0464  025F               	subwf	_ADC,w
   900  0465  1C03               	skipc
   901  0466  2C68               	goto	u1951
   902  0467  2C69               	goto	u1950
   903  0468                     u1951:	
   904  0468  2C6F               	goto	l1776
   905  0469                     u1950:	
   906  0469                     l1772:	
   907  0469  035C               	decf	_S1,w
   908  046A  1D03               	btfss	3,2
   909  046B  2C6D               	goto	u1961
   910  046C  2C6E               	goto	u1960
   911  046D                     u1961:	
   912  046D  2C6F               	goto	l1776
   913  046E                     u1960:	
   914  046E                     l1774:	
   915                           
   916                           ;TEMP_SLAVE.c: 129:             S1=0;
   917  046E  01DC               	clrf	_S1
   918  046F                     l1776:	
   919                           
   920                           ;TEMP_SLAVE.c: 131:         if(ADC==0 & S1==0){
   921  046F  085F               	movf	_ADC,w
   922  0470  1D03               	btfss	3,2
   923  0471  2C73               	goto	u1971
   924  0472  2C74               	goto	u1970
   925  0473                     u1971:	
   926  0473  2C7B               	goto	l1782
   927  0474                     u1970:	
   928  0474                     l1778:	
   929  0474  085C               	movf	_S1,w
   930  0475  1D03               	btfss	3,2
   931  0476  2C78               	goto	u1981
   932  0477  2C79               	goto	u1980
   933  0478                     u1981:	
   934  0478  2C7B               	goto	l1782
   935  0479                     u1980:	
   936  0479                     l1780:	
   937                           
   938                           ;TEMP_SLAVE.c: 132:             CCPR1L = 10;
   939  0479  300A               	movlw	10
   940  047A  0095               	movwf	21	;volatile
   941  047B                     l1782:	
   942                           
   943                           ;TEMP_SLAVE.c: 135:     dist = calc_dist()/5;
   944  047B  3005               	movlw	5
   945  047C  00D2               	movwf	___awdiv@divisor
   946  047D  3000               	movlw	0
   947  047E  00D3               	movwf	___awdiv@divisor+1
   948  047F  120A  118A  23FC  120A  118A  	fcall	_calc_dist
   949  0484  1283               	bcf	3,5	;RP0=0, select bank0
   950  0485  1303               	bcf	3,6	;RP1=0, select bank0
   951  0486  084E               	movf	?_calc_dist+1,w
   952  0487  00D5               	movwf	___awdiv@dividend+1
   953  0488  084D               	movf	?_calc_dist,w
   954  0489  00D4               	movwf	___awdiv@dividend
   955  048A  120A  118A  2330  120A  118A  	fcall	___awdiv
   956  048F  1283               	bcf	3,5	;RP0=0, select bank0
   957  0490  1303               	bcf	3,6	;RP1=0, select bank0
   958  0491  0852               	movf	?___awdiv,w
   959  0492  00DB               	movwf	??_LOOP
   960  0493  085B               	movf	??_LOOP,w
   961  0494  00DD               	movwf	_dist
   962  0495                     l1784:	
   963                           
   964                           ;TEMP_SLAVE.c: 137:     if(dist>0){
   965  0495  085D               	movf	_dist,w
   966  0496  1903               	btfsc	3,2
   967  0497  2C99               	goto	u1991
   968  0498  2C9A               	goto	u1990
   969  0499                     u1991:	
   970  0499  2C9C               	goto	l1788
   971  049A                     u1990:	
   972  049A                     l1786:	
   973                           
   974                           ;TEMP_SLAVE.c: 138:     ultrasonico = 0x00;
   975  049A  01DE               	clrf	_ultrasonico
   976                           
   977                           ;TEMP_SLAVE.c: 139:     }
   978  049B  2C52               	goto	l114
   979  049C                     l1788:	
   980                           
   981                           ;TEMP_SLAVE.c: 141:     {ultrasonico = 0x0F;}
   982  049C  300F               	movlw	15
   983  049D  00DB               	movwf	??_LOOP
   984  049E  085B               	movf	??_LOOP,w
   985  049F  00DE               	movwf	_ultrasonico
   986  04A0  2C52               	goto	l114
   987  04A1  0008               	return
   988  04A2                     __end_of_LOOP:	
   989                           
   990                           	psect	text3
   991  03FC                     __ptext3:	
   992 ;; *************** function _calc_dist *****************
   993 ;; Defined at:
   994 ;;		line 186 in file "TEMP_SLAVE.c"
   995 ;; Parameters:    Size  Location     Type
   996 ;;		None
   997 ;; Auto vars:     Size  Location     Type
   998 ;;  distance        2   48[BANK0 ] int 
   999 ;; Return value:  Size  Location     Type
  1000 ;;                  2   45[BANK0 ] int 
  1001 ;; Registers used:
  1002 ;;		wreg, status,2, status,0, btemp+1, pclath, cstack
  1003 ;; Tracked objects:
  1004 ;;		On entry : 0/0
  1005 ;;		On exit  : 0/0
  1006 ;;		Unchanged: 0/0
  1007 ;; Data sizes:     COMMON   BANK0   BANK1   BANK3   BANK2
  1008 ;;      Params:         0       2       0       0       0
  1009 ;;      Locals:         0       2       0       0       0
  1010 ;;      Temps:          0       1       0       0       0
  1011 ;;      Totals:         0       5       0       0       0
  1012 ;;Total ram usage:        5 bytes
  1013 ;; Hardware stack levels used:    1
  1014 ;; Hardware stack levels required when called:    2
  1015 ;; This function calls:
  1016 ;;		___fldiv
  1017 ;;		___fltol
  1018 ;;		___xxtofl
  1019 ;; This function is called by:
  1020 ;;		_LOOP
  1021 ;; This function uses a non-reentrant model
  1022 ;;
  1023                           
  1024                           
  1025                           ;psect for function _calc_dist
  1026  03FC                     _calc_dist:	
  1027  03FC                     l1750:	
  1028                           ;incstack = 0
  1029                           ; Regs used in _calc_dist: [wreg+status,2+status,0+btemp+1+pclath+cstack]
  1030                           
  1031                           
  1032                           ;TEMP_SLAVE.c: 188:     TMR1=0;
  1033  03FC  1283               	bcf	3,5	;RP0=0, select bank0
  1034  03FD  1303               	bcf	3,6	;RP1=0, select bank0
  1035  03FE  018E               	clrf	14	;volatile
  1036  03FF  018F               	clrf	15	;volatile
  1037  0400                     l1752:	
  1038                           
  1039                           ;TEMP_SLAVE.c: 190:     RD0=1;
  1040  0400  1408               	bsf	8,0	;volatile
  1041  0401                     l1754:	
  1042                           
  1043                           ;TEMP_SLAVE.c: 191:     _delay((unsigned long)((10)*(8000000/4000000.0)));
  1044  0401  3005               	movlw	5
  1045  0402  1283               	bcf	3,5	;RP0=0, select bank0
  1046  0403  1303               	bcf	3,6	;RP1=0, select bank0
  1047  0404  00CF               	movwf	??_calc_dist
  1048  0405                     u2007:	
  1049  0405  0BCF               	decfsz	??_calc_dist,f
  1050  0406  2C05               	goto	u2007
  1051  0407  2C08               	nop2
  1052  0408                     l1756:	
  1053                           
  1054                           ;TEMP_SLAVE.c: 192:     RD0=0;
  1055  0408  1283               	bcf	3,5	;RP0=0, select bank0
  1056  0409  1303               	bcf	3,6	;RP1=0, select bank0
  1057  040A  1008               	bcf	8,0	;volatile
  1058  040B                     l137:	
  1059                           ;TEMP_SLAVE.c: 194:     while(!RD1);
  1060                           
  1061  040B  1C88               	btfss	8,1	;volatile
  1062  040C  2C0E               	goto	u1921
  1063  040D  2C0F               	goto	u1920
  1064  040E                     u1921:	
  1065  040E  2C0B               	goto	l137
  1066  040F                     u1920:	
  1067  040F                     l139:	
  1068                           
  1069                           ;TEMP_SLAVE.c: 197:     TMR1ON=1;
  1070  040F  1410               	bsf	16,0	;volatile
  1071  0410                     l140:	
  1072                           ;TEMP_SLAVE.c: 199:     while(RD1);
  1073                           
  1074  0410  1888               	btfsc	8,1	;volatile
  1075  0411  2C13               	goto	u1931
  1076  0412  2C14               	goto	u1930
  1077  0413                     u1931:	
  1078  0413  2C10               	goto	l140
  1079  0414                     u1930:	
  1080  0414                     l142:	
  1081                           
  1082                           ;TEMP_SLAVE.c: 201:     TMR1ON=0;
  1083  0414  1010               	bcf	16,0	;volatile
  1084  0415                     l1758:	
  1085                           
  1086                           ;TEMP_SLAVE.c: 204:     distance=TMR1/58.82;
  1087  0415  080E               	movf	14,w	;volatile
  1088  0416  00F3               	movwf	___xxtofl@val
  1089  0417  080F               	movf	15,w	;volatile
  1090  0418  00F4               	movwf	___xxtofl@val+1
  1091  0419  01F5               	clrf	___xxtofl@val+2
  1092  041A  01F6               	clrf	___xxtofl@val+3
  1093  041B  3000               	movlw	0
  1094  041C  120A  118A  21F8  120A  118A  	fcall	___xxtofl
  1095  0421  0876               	movf	?___xxtofl+3,w
  1096  0422  1283               	bcf	3,5	;RP0=0, select bank0
  1097  0423  1303               	bcf	3,6	;RP1=0, select bank0
  1098  0424  00B1               	movwf	___fldiv@b+3
  1099  0425  0875               	movf	?___xxtofl+2,w
  1100  0426  00B0               	movwf	___fldiv@b+2
  1101  0427  0874               	movf	?___xxtofl+1,w
  1102  0428  00AF               	movwf	___fldiv@b+1
  1103  0429  0873               	movf	?___xxtofl,w
  1104  042A  00AE               	movwf	___fldiv@b
  1105  042B  3042               	movlw	66
  1106  042C  00AD               	movwf	___fldiv@a+3
  1107  042D  306B               	movlw	107
  1108  042E  00AC               	movwf	___fldiv@a+2
  1109  042F  3047               	movlw	71
  1110  0430  00AB               	movwf	___fldiv@a+1
  1111  0431  30AE               	movlw	174
  1112  0432  00AA               	movwf	___fldiv@a
  1113  0433  120A  118A  201B  120A  118A  	fcall	___fldiv
  1114  0438  1283               	bcf	3,5	;RP0=0, select bank0
  1115  0439  1303               	bcf	3,6	;RP1=0, select bank0
  1116  043A  082D               	movf	?___fldiv+3,w
  1117  043B  00C7               	movwf	___fltol@f1+3
  1118  043C  082C               	movf	?___fldiv+2,w
  1119  043D  00C6               	movwf	___fltol@f1+2
  1120  043E  082B               	movf	?___fldiv+1,w
  1121  043F  00C5               	movwf	___fltol@f1+1
  1122  0440  082A               	movf	?___fldiv,w
  1123  0441  00C4               	movwf	___fltol@f1
  1124  0442  120A  118A  22B4  120A  118A  	fcall	___fltol
  1125  0447  1283               	bcf	3,5	;RP0=0, select bank0
  1126  0448  1303               	bcf	3,6	;RP1=0, select bank0
  1127  0449  0845               	movf	?___fltol+1,w
  1128  044A  00D1               	movwf	calc_dist@distance+1
  1129  044B  0844               	movf	?___fltol,w
  1130  044C  00D0               	movwf	calc_dist@distance
  1131  044D                     l1760:	
  1132                           
  1133                           ;TEMP_SLAVE.c: 205:     return distance;
  1134  044D  0851               	movf	calc_dist@distance+1,w
  1135  044E  00CE               	movwf	?_calc_dist+1
  1136  044F  0850               	movf	calc_dist@distance,w
  1137  0450  00CD               	movwf	?_calc_dist
  1138  0451                     l143:	
  1139  0451  0008               	return
  1140  0452                     __end_of_calc_dist:	
  1141                           
  1142                           	psect	text4
  1143  01F8                     __ptext4:	
  1144 ;; *************** function ___xxtofl *****************
  1145 ;; Defined at:
  1146 ;;		line 10 in file "C:\Program Files (x86)\Microchip\xc8\v2.10\pic\sources\c90\common\xxtofl.c"
  1147 ;; Parameters:    Size  Location     Type
  1148 ;;  sign            1    wreg     unsigned char 
  1149 ;;  val             4    3[COMMON] long 
  1150 ;; Auto vars:     Size  Location     Type
  1151 ;;  sign            1    4[BANK0 ] unsigned char 
  1152 ;;  arg             4    6[BANK0 ] unsigned long 
  1153 ;;  exp             1    5[BANK0 ] unsigned char 
  1154 ;; Return value:  Size  Location     Type
  1155 ;;                  4    3[COMMON] unsigned char 
  1156 ;; Registers used:
  1157 ;;		wreg, status,2, status,0
  1158 ;; Tracked objects:
  1159 ;;		On entry : 0/0
  1160 ;;		On exit  : 0/0
  1161 ;;		Unchanged: 0/0
  1162 ;; Data sizes:     COMMON   BANK0   BANK1   BANK3   BANK2
  1163 ;;      Params:         4       0       0       0       0
  1164 ;;      Locals:         0       6       0       0       0
  1165 ;;      Temps:          0       4       0       0       0
  1166 ;;      Totals:         4      10       0       0       0
  1167 ;;Total ram usage:       14 bytes
  1168 ;; Hardware stack levels used:    1
  1169 ;; Hardware stack levels required when called:    1
  1170 ;; This function calls:
  1171 ;;		Nothing
  1172 ;; This function is called by:
  1173 ;;		_calc_dist
  1174 ;; This function uses a non-reentrant model
  1175 ;;
  1176                           
  1177                           
  1178                           ;psect for function ___xxtofl
  1179  01F8                     ___xxtofl:	
  1180                           
  1181                           ;incstack = 0
  1182                           ; Regs used in ___xxtofl: [wreg+status,2+status,0]
  1183                           ;___xxtofl@sign stored from wreg
  1184  01F8  1283               	bcf	3,5	;RP0=0, select bank0
  1185  01F9  1303               	bcf	3,6	;RP1=0, select bank0
  1186  01FA  00A4               	movwf	___xxtofl@sign
  1187  01FB                     l1706:	
  1188  01FB  0824               	movf	___xxtofl@sign,w
  1189  01FC  1903               	btfsc	3,2
  1190  01FD  29FF               	goto	u1781
  1191  01FE  2A00               	goto	u1780
  1192  01FF                     u1781:	
  1193  01FF  2A14               	goto	l1712
  1194  0200                     u1780:	
  1195  0200                     l1708:	
  1196  0200  1FF6               	btfss	___xxtofl@val+3,7
  1197  0201  2A03               	goto	u1791
  1198  0202  2A04               	goto	u1790
  1199  0203                     u1791:	
  1200  0203  2A14               	goto	l1712
  1201  0204                     u1790:	
  1202  0204                     l1710:	
  1203  0204  0973               	comf	___xxtofl@val,w
  1204  0205  00A6               	movwf	___xxtofl@arg
  1205  0206  0974               	comf	___xxtofl@val+1,w
  1206  0207  00A7               	movwf	___xxtofl@arg+1
  1207  0208  0975               	comf	___xxtofl@val+2,w
  1208  0209  00A8               	movwf	___xxtofl@arg+2
  1209  020A  0976               	comf	___xxtofl@val+3,w
  1210  020B  00A9               	movwf	___xxtofl@arg+3
  1211  020C  0AA6               	incf	___xxtofl@arg,f
  1212  020D  1903               	skipnz
  1213  020E  0AA7               	incf	___xxtofl@arg+1,f
  1214  020F  1903               	skipnz
  1215  0210  0AA8               	incf	___xxtofl@arg+2,f
  1216  0211  1903               	skipnz
  1217  0212  0AA9               	incf	___xxtofl@arg+3,f
  1218  0213  2A1C               	goto	l711
  1219  0214                     l1712:	
  1220  0214  0876               	movf	___xxtofl@val+3,w
  1221  0215  00A9               	movwf	___xxtofl@arg+3
  1222  0216  0875               	movf	___xxtofl@val+2,w
  1223  0217  00A8               	movwf	___xxtofl@arg+2
  1224  0218  0874               	movf	___xxtofl@val+1,w
  1225  0219  00A7               	movwf	___xxtofl@arg+1
  1226  021A  0873               	movf	___xxtofl@val,w
  1227  021B  00A6               	movwf	___xxtofl@arg
  1228  021C                     l711:	
  1229  021C  0876               	movf	___xxtofl@val+3,w
  1230  021D  0475               	iorwf	___xxtofl@val+2,w
  1231  021E  0474               	iorwf	___xxtofl@val+1,w
  1232  021F  0473               	iorwf	___xxtofl@val,w
  1233  0220  1D03               	skipz
  1234  0221  2A23               	goto	u1801
  1235  0222  2A24               	goto	u1800
  1236  0223                     u1801:	
  1237  0223  2A2D               	goto	l1718
  1238  0224                     u1800:	
  1239  0224                     l1714:	
  1240  0224  3000               	movlw	0
  1241  0225  00F6               	movwf	?___xxtofl+3
  1242  0226  3000               	movlw	0
  1243  0227  00F5               	movwf	?___xxtofl+2
  1244  0228  3000               	movlw	0
  1245  0229  00F4               	movwf	?___xxtofl+1
  1246  022A  3000               	movlw	0
  1247  022B  00F3               	movwf	?___xxtofl
  1248  022C  2AB3               	goto	l713
  1249  022D                     l1718:	
  1250  022D  3096               	movlw	150
  1251  022E  00A0               	movwf	??___xxtofl
  1252  022F  0820               	movf	??___xxtofl,w
  1253  0230  00A5               	movwf	___xxtofl@exp
  1254  0231  2A3F               	goto	l1722
  1255  0232                     l1720:	
  1256  0232  3001               	movlw	1
  1257  0233  00A0               	movwf	??___xxtofl
  1258  0234  0820               	movf	??___xxtofl,w
  1259  0235  07A5               	addwf	___xxtofl@exp,f
  1260  0236  3001               	movlw	1
  1261  0237                     u1815:	
  1262  0237  1003               	clrc
  1263  0238  0CA9               	rrf	___xxtofl@arg+3,f
  1264  0239  0CA8               	rrf	___xxtofl@arg+2,f
  1265  023A  0CA7               	rrf	___xxtofl@arg+1,f
  1266  023B  0CA6               	rrf	___xxtofl@arg,f
  1267  023C  3EFF               	addlw	-1
  1268  023D  1D03               	skipz
  1269  023E  2A37               	goto	u1815
  1270  023F                     l1722:	
  1271  023F  30FE               	movlw	254
  1272  0240  0529               	andwf	___xxtofl@arg+3,w
  1273  0241  1D03               	btfss	3,2
  1274  0242  2A44               	goto	u1821
  1275  0243  2A45               	goto	u1820
  1276  0244                     u1821:	
  1277  0244  2A32               	goto	l1720
  1278  0245                     u1820:	
  1279  0245  2A61               	goto	l717
  1280  0246                     l1724:	
  1281  0246  3001               	movlw	1
  1282  0247  00A0               	movwf	??___xxtofl
  1283  0248  0820               	movf	??___xxtofl,w
  1284  0249  07A5               	addwf	___xxtofl@exp,f
  1285  024A                     l1726:	
  1286  024A  3001               	movlw	1
  1287  024B  07A6               	addwf	___xxtofl@arg,f
  1288  024C  3000               	movlw	0
  1289  024D  1803               	skipnc
  1290  024E  3001               	movlw	1
  1291  024F  07A7               	addwf	___xxtofl@arg+1,f
  1292  0250  3000               	movlw	0
  1293  0251  1803               	skipnc
  1294  0252  3001               	movlw	1
  1295  0253  07A8               	addwf	___xxtofl@arg+2,f
  1296  0254  3000               	movlw	0
  1297  0255  1803               	skipnc
  1298  0256  3001               	movlw	1
  1299  0257  07A9               	addwf	___xxtofl@arg+3,f
  1300  0258                     l1728:	
  1301  0258  3001               	movlw	1
  1302  0259                     u1835:	
  1303  0259  1003               	clrc
  1304  025A  0CA9               	rrf	___xxtofl@arg+3,f
  1305  025B  0CA8               	rrf	___xxtofl@arg+2,f
  1306  025C  0CA7               	rrf	___xxtofl@arg+1,f
  1307  025D  0CA6               	rrf	___xxtofl@arg,f
  1308  025E  3EFF               	addlw	-1
  1309  025F  1D03               	skipz
  1310  0260  2A59               	goto	u1835
  1311  0261                     l717:	
  1312  0261  30FF               	movlw	255
  1313  0262  0529               	andwf	___xxtofl@arg+3,w
  1314  0263  1D03               	btfss	3,2
  1315  0264  2A66               	goto	u1841
  1316  0265  2A67               	goto	u1840
  1317  0266                     u1841:	
  1318  0266  2A46               	goto	l1724
  1319  0267                     u1840:	
  1320  0267  2A73               	goto	l1732
  1321  0268                     l1730:	
  1322  0268  3001               	movlw	1
  1323  0269  02A5               	subwf	___xxtofl@exp,f
  1324  026A  3001               	movlw	1
  1325  026B  00A0               	movwf	??___xxtofl
  1326  026C                     u1855:	
  1327  026C  1003               	clrc
  1328  026D  0DA6               	rlf	___xxtofl@arg,f
  1329  026E  0DA7               	rlf	___xxtofl@arg+1,f
  1330  026F  0DA8               	rlf	___xxtofl@arg+2,f
  1331  0270  0DA9               	rlf	___xxtofl@arg+3,f
  1332  0271  0BA0               	decfsz	??___xxtofl,f
  1333  0272  2A6C               	goto	u1855
  1334  0273                     l1732:	
  1335  0273  1BA8               	btfsc	___xxtofl@arg+2,7
  1336  0274  2A76               	goto	u1861
  1337  0275  2A77               	goto	u1860
  1338  0276                     u1861:	
  1339  0276  2A7D               	goto	l724
  1340  0277                     u1860:	
  1341  0277                     l1734:	
  1342  0277  3002               	movlw	2
  1343  0278  0225               	subwf	___xxtofl@exp,w
  1344  0279  1803               	skipnc
  1345  027A  2A7C               	goto	u1871
  1346  027B  2A7D               	goto	u1870
  1347  027C                     u1871:	
  1348  027C  2A68               	goto	l1730
  1349  027D                     u1870:	
  1350  027D                     l724:	
  1351  027D  1825               	btfsc	___xxtofl@exp,0
  1352  027E  2A80               	goto	u1881
  1353  027F  2A81               	goto	u1880
  1354  0280                     u1881:	
  1355  0280  2A89               	goto	l725
  1356  0281                     u1880:	
  1357  0281                     l1736:	
  1358  0281  30FF               	movlw	255
  1359  0282  05A6               	andwf	___xxtofl@arg,f
  1360  0283  30FF               	movlw	255
  1361  0284  05A7               	andwf	___xxtofl@arg+1,f
  1362  0285  307F               	movlw	127
  1363  0286  05A8               	andwf	___xxtofl@arg+2,f
  1364  0287  30FF               	movlw	255
  1365  0288  05A9               	andwf	___xxtofl@arg+3,f
  1366  0289                     l725:	
  1367  0289  1003               	clrc
  1368  028A  0CA5               	rrf	___xxtofl@exp,f
  1369  028B                     l1738:	
  1370  028B  0825               	movf	___xxtofl@exp,w
  1371  028C  00A0               	movwf	??___xxtofl
  1372  028D  01A1               	clrf	??___xxtofl+1
  1373  028E  01A2               	clrf	??___xxtofl+2
  1374  028F  01A3               	clrf	??___xxtofl+3
  1375  0290  3018               	movlw	24
  1376  0291                     u1895:	
  1377  0291  1003               	clrc
  1378  0292  0DA0               	rlf	??___xxtofl,f
  1379  0293  0DA1               	rlf	??___xxtofl+1,f
  1380  0294  0DA2               	rlf	??___xxtofl+2,f
  1381  0295  0DA3               	rlf	??___xxtofl+3,f
  1382  0296                     u1890:	
  1383  0296  3EFF               	addlw	-1
  1384  0297  1D03               	skipz
  1385  0298  2A91               	goto	u1895
  1386  0299  0820               	movf	??___xxtofl,w
  1387  029A  04A6               	iorwf	___xxtofl@arg,f
  1388  029B  0821               	movf	??___xxtofl+1,w
  1389  029C  04A7               	iorwf	___xxtofl@arg+1,f
  1390  029D  0822               	movf	??___xxtofl+2,w
  1391  029E  04A8               	iorwf	___xxtofl@arg+2,f
  1392  029F  0823               	movf	??___xxtofl+3,w
  1393  02A0  04A9               	iorwf	___xxtofl@arg+3,f
  1394  02A1                     l1740:	
  1395  02A1  0824               	movf	___xxtofl@sign,w
  1396  02A2  1903               	btfsc	3,2
  1397  02A3  2AA5               	goto	u1901
  1398  02A4  2AA6               	goto	u1900
  1399  02A5                     u1901:	
  1400  02A5  2AAB               	goto	l1746
  1401  02A6                     u1900:	
  1402  02A6                     l1742:	
  1403  02A6  1FF6               	btfss	___xxtofl@val+3,7
  1404  02A7  2AA9               	goto	u1911
  1405  02A8  2AAA               	goto	u1910
  1406  02A9                     u1911:	
  1407  02A9  2AAB               	goto	l1746
  1408  02AA                     u1910:	
  1409  02AA                     l1744:	
  1410  02AA  17A9               	bsf	___xxtofl@arg+3,7
  1411  02AB                     l1746:	
  1412  02AB  0829               	movf	___xxtofl@arg+3,w
  1413  02AC  00F6               	movwf	?___xxtofl+3
  1414  02AD  0828               	movf	___xxtofl@arg+2,w
  1415  02AE  00F5               	movwf	?___xxtofl+2
  1416  02AF  0827               	movf	___xxtofl@arg+1,w
  1417  02B0  00F4               	movwf	?___xxtofl+1
  1418  02B1  0826               	movf	___xxtofl@arg,w
  1419  02B2  00F3               	movwf	?___xxtofl
  1420  02B3                     l713:	
  1421  02B3  0008               	return
  1422  02B4                     __end_of___xxtofl:	
  1423                           
  1424                           	psect	text5
  1425  02B4                     __ptext5:	
  1426 ;; *************** function ___fltol *****************
  1427 ;; Defined at:
  1428 ;;		line 43 in file "C:\Program Files (x86)\Microchip\xc8\v2.10\pic\sources\c90\common\fltol.c"
  1429 ;; Parameters:    Size  Location     Type
  1430 ;;  f1              4   36[BANK0 ] unsigned char 
  1431 ;; Auto vars:     Size  Location     Type
  1432 ;;  exp1            1    8[COMMON] unsigned char 
  1433 ;;  sign1           1    7[COMMON] unsigned char 
  1434 ;; Return value:  Size  Location     Type
  1435 ;;                  4   36[BANK0 ] long 
  1436 ;; Registers used:
  1437 ;;		wreg, status,2, status,0
  1438 ;; Tracked objects:
  1439 ;;		On entry : 0/0
  1440 ;;		On exit  : 0/0
  1441 ;;		Unchanged: 0/0
  1442 ;; Data sizes:     COMMON   BANK0   BANK1   BANK3   BANK2
  1443 ;;      Params:         0       4       0       0       0
  1444 ;;      Locals:         2       0       0       0       0
  1445 ;;      Temps:          0       5       0       0       0
  1446 ;;      Totals:         2       9       0       0       0
  1447 ;;Total ram usage:       11 bytes
  1448 ;; Hardware stack levels used:    1
  1449 ;; Hardware stack levels required when called:    1
  1450 ;; This function calls:
  1451 ;;		Nothing
  1452 ;; This function is called by:
  1453 ;;		_calc_dist
  1454 ;; This function uses a non-reentrant model
  1455 ;;
  1456                           
  1457                           
  1458                           ;psect for function ___fltol
  1459  02B4                     ___fltol:	
  1460  02B4                     l1670:	
  1461                           ;incstack = 0
  1462                           ; Regs used in ___fltol: [wreg+status,2+status,0]
  1463                           
  1464  02B4  1003               	clrc
  1465  02B5  1283               	bcf	3,5	;RP0=0, select bank0
  1466  02B6  1303               	bcf	3,6	;RP1=0, select bank0
  1467  02B7  0D46               	rlf	___fltol@f1+2,w
  1468  02B8  0D47               	rlf	___fltol@f1+3,w
  1469  02B9  00C8               	movwf	??___fltol
  1470  02BA  0848               	movf	??___fltol,w
  1471  02BB  00F8               	movwf	___fltol@exp1
  1472  02BC  0878               	movf	___fltol@exp1,w
  1473  02BD  1D03               	btfss	3,2
  1474  02BE  2AC0               	goto	u1681
  1475  02BF  2AC1               	goto	u1680
  1476  02C0                     u1681:	
  1477  02C0  2ACA               	goto	l1676
  1478  02C1                     u1680:	
  1479  02C1                     l1672:	
  1480  02C1  3000               	movlw	0
  1481  02C2  00C7               	movwf	?___fltol+3
  1482  02C3  3000               	movlw	0
  1483  02C4  00C6               	movwf	?___fltol+2
  1484  02C5  3000               	movlw	0
  1485  02C6  00C5               	movwf	?___fltol+1
  1486  02C7  3000               	movlw	0
  1487  02C8  00C4               	movwf	?___fltol
  1488  02C9  2B2F               	goto	l470
  1489  02CA                     l1676:	
  1490  02CA  0844               	movf	___fltol@f1,w
  1491  02CB  00C8               	movwf	??___fltol
  1492  02CC  0845               	movf	___fltol@f1+1,w
  1493  02CD  00C9               	movwf	??___fltol+1
  1494  02CE  0846               	movf	___fltol@f1+2,w
  1495  02CF  00CA               	movwf	??___fltol+2
  1496  02D0  0847               	movf	___fltol@f1+3,w
  1497  02D1  00CB               	movwf	??___fltol+3
  1498  02D2  301F               	movlw	31
  1499  02D3                     u1695:	
  1500  02D3  1003               	clrc
  1501  02D4  0CCB               	rrf	??___fltol+3,f
  1502  02D5  0CCA               	rrf	??___fltol+2,f
  1503  02D6  0CC9               	rrf	??___fltol+1,f
  1504  02D7  0CC8               	rrf	??___fltol,f
  1505  02D8                     u1690:	
  1506  02D8  3EFF               	addlw	-1
  1507  02D9  1D03               	skipz
  1508  02DA  2AD3               	goto	u1695
  1509  02DB  0848               	movf	??___fltol,w
  1510  02DC  00CC               	movwf	??___fltol+4
  1511  02DD  084C               	movf	??___fltol+4,w
  1512  02DE  00F7               	movwf	___fltol@sign1
  1513  02DF                     l1678:	
  1514  02DF  17C6               	bsf	___fltol@f1+2,7
  1515  02E0                     l1680:	
  1516  02E0  30FF               	movlw	255
  1517  02E1  05C4               	andwf	___fltol@f1,f
  1518  02E2  30FF               	movlw	255
  1519  02E3  05C5               	andwf	___fltol@f1+1,f
  1520  02E4  30FF               	movlw	255
  1521  02E5  05C6               	andwf	___fltol@f1+2,f
  1522  02E6  3000               	movlw	0
  1523  02E7  05C7               	andwf	___fltol@f1+3,f
  1524  02E8                     l1682:	
  1525  02E8  3096               	movlw	150
  1526  02E9  02F8               	subwf	___fltol@exp1,f
  1527  02EA                     l1684:	
  1528  02EA  1FF8               	btfss	___fltol@exp1,7
  1529  02EB  2AED               	goto	u1701
  1530  02EC  2AEE               	goto	u1700
  1531  02ED                     u1701:	
  1532  02ED  2B08               	goto	l1694
  1533  02EE                     u1700:	
  1534  02EE                     l1686:	
  1535  02EE  0878               	movf	___fltol@exp1,w
  1536  02EF  3A80               	xorlw	128
  1537  02F0  3E97               	addlw	151
  1538  02F1  1803               	skipnc
  1539  02F2  2AF4               	goto	u1711
  1540  02F3  2AF5               	goto	u1710
  1541  02F4                     u1711:	
  1542  02F4  2AF6               	goto	l1692
  1543  02F5                     u1710:	
  1544  02F5  2AC1               	goto	l1672
  1545  02F6                     l1692:	
  1546  02F6  3001               	movlw	1
  1547  02F7                     u1725:	
  1548  02F7  1003               	clrc
  1549  02F8  0CC7               	rrf	___fltol@f1+3,f
  1550  02F9  0CC6               	rrf	___fltol@f1+2,f
  1551  02FA  0CC5               	rrf	___fltol@f1+1,f
  1552  02FB  0CC4               	rrf	___fltol@f1,f
  1553  02FC  3EFF               	addlw	-1
  1554  02FD  1D03               	skipz
  1555  02FE  2AF7               	goto	u1725
  1556  02FF  3001               	movlw	1
  1557  0300  00C8               	movwf	??___fltol
  1558  0301  0848               	movf	??___fltol,w
  1559  0302  07F8               	addwf	___fltol@exp1,f
  1560  0303  1D03               	btfss	3,2
  1561  0304  2B06               	goto	u1731
  1562  0305  2B07               	goto	u1730
  1563  0306                     u1731:	
  1564  0306  2AF6               	goto	l1692
  1565  0307                     u1730:	
  1566  0307  2B1F               	goto	l1702
  1567  0308                     l1694:	
  1568  0308  3020               	movlw	32
  1569  0309  0278               	subwf	___fltol@exp1,w
  1570  030A  1C03               	skipc
  1571  030B  2B0D               	goto	u1741
  1572  030C  2B0E               	goto	u1740
  1573  030D                     u1741:	
  1574  030D  2B1A               	goto	l477
  1575  030E                     u1740:	
  1576  030E  2AC1               	goto	l1672
  1577  030F                     l1700:	
  1578  030F  3001               	movlw	1
  1579  0310  00C8               	movwf	??___fltol
  1580  0311                     u1755:	
  1581  0311  1003               	clrc
  1582  0312  0DC4               	rlf	___fltol@f1,f
  1583  0313  0DC5               	rlf	___fltol@f1+1,f
  1584  0314  0DC6               	rlf	___fltol@f1+2,f
  1585  0315  0DC7               	rlf	___fltol@f1+3,f
  1586  0316  0BC8               	decfsz	??___fltol,f
  1587  0317  2B11               	goto	u1755
  1588  0318  3001               	movlw	1
  1589  0319  02F8               	subwf	___fltol@exp1,f
  1590  031A                     l477:	
  1591  031A  0878               	movf	___fltol@exp1,w
  1592  031B  1D03               	btfss	3,2
  1593  031C  2B1E               	goto	u1761
  1594  031D  2B1F               	goto	u1760
  1595  031E                     u1761:	
  1596  031E  2B0F               	goto	l1700
  1597  031F                     u1760:	
  1598  031F                     l1702:	
  1599  031F  0877               	movf	___fltol@sign1,w
  1600  0320  1903               	btfsc	3,2
  1601  0321  2B23               	goto	u1771
  1602  0322  2B24               	goto	u1770
  1603  0323                     u1771:	
  1604  0323  2B2F               	goto	l480
  1605  0324                     u1770:	
  1606  0324                     l1704:	
  1607  0324  09C4               	comf	___fltol@f1,f
  1608  0325  09C5               	comf	___fltol@f1+1,f
  1609  0326  09C6               	comf	___fltol@f1+2,f
  1610  0327  09C7               	comf	___fltol@f1+3,f
  1611  0328  0AC4               	incf	___fltol@f1,f
  1612  0329  1903               	skipnz
  1613  032A  0AC5               	incf	___fltol@f1+1,f
  1614  032B  1903               	skipnz
  1615  032C  0AC6               	incf	___fltol@f1+2,f
  1616  032D  1903               	skipnz
  1617  032E  0AC7               	incf	___fltol@f1+3,f
  1618  032F                     l480:	
  1619  032F                     l470:	
  1620  032F  0008               	return
  1621  0330                     __end_of___fltol:	
  1622                           
  1623                           	psect	text6
  1624  001B                     __ptext6:	
  1625 ;; *************** function ___fldiv *****************
  1626 ;; Defined at:
  1627 ;;		line 8 in file "C:\Program Files (x86)\Microchip\xc8\v2.10\pic\sources\c90\common\sprcdiv.c"
  1628 ;; Parameters:    Size  Location     Type
  1629 ;;  a               4   10[BANK0 ] long 
  1630 ;;  b               4   14[BANK0 ] long 
  1631 ;; Auto vars:     Size  Location     Type
  1632 ;;  grs             4   30[BANK0 ] unsigned long 
  1633 ;;  rem             4   23[BANK0 ] unsigned long 
  1634 ;;  new_exp         2   28[BANK0 ] int 
  1635 ;;  aexp            1   35[BANK0 ] unsigned char 
  1636 ;;  bexp            1   34[BANK0 ] unsigned char 
  1637 ;;  sign            1   27[BANK0 ] unsigned char 
  1638 ;; Return value:  Size  Location     Type
  1639 ;;                  4   10[BANK0 ] unsigned char 
  1640 ;; Registers used:
  1641 ;;		wreg, status,2, status,0, btemp+1
  1642 ;; Tracked objects:
  1643 ;;		On entry : 0/0
  1644 ;;		On exit  : 0/0
  1645 ;;		Unchanged: 0/0
  1646 ;; Data sizes:     COMMON   BANK0   BANK1   BANK3   BANK2
  1647 ;;      Params:         0       8       0       0       0
  1648 ;;      Locals:         0      13       0       0       0
  1649 ;;      Temps:          0       5       0       0       0
  1650 ;;      Totals:         0      26       0       0       0
  1651 ;;Total ram usage:       26 bytes
  1652 ;; Hardware stack levels used:    1
  1653 ;; Hardware stack levels required when called:    1
  1654 ;; This function calls:
  1655 ;;		Nothing
  1656 ;; This function is called by:
  1657 ;;		_calc_dist
  1658 ;; This function uses a non-reentrant model
  1659 ;;
  1660                           
  1661                           
  1662                           ;psect for function ___fldiv
  1663  001B                     ___fldiv:	
  1664  001B                     l1306:	
  1665                           ;incstack = 0
  1666                           ; Regs used in ___fldiv: [wreg+status,2+status,0+btemp+1]
  1667                           
  1668  001B  1283               	bcf	3,5	;RP0=0, select bank0
  1669  001C  1303               	bcf	3,6	;RP1=0, select bank0
  1670  001D  0831               	movf	___fldiv@b+3,w
  1671  001E  3980               	andlw	128
  1672  001F  00B2               	movwf	??___fldiv
  1673  0020  0832               	movf	??___fldiv,w
  1674  0021  00BB               	movwf	___fldiv@sign
  1675  0022                     l1308:	
  1676  0022  0831               	movf	___fldiv@b+3,w
  1677  0023  00B2               	movwf	??___fldiv
  1678  0024  0732               	addwf	??___fldiv,w
  1679  0025  00B3               	movwf	??___fldiv+1
  1680  0026  0833               	movf	??___fldiv+1,w
  1681  0027  00C2               	movwf	___fldiv@bexp
  1682  0028                     l1310:	
  1683  0028  1FB0               	btfss	___fldiv@b+2,7
  1684  0029  282B               	goto	u971
  1685  002A  282C               	goto	u970
  1686  002B                     u971:	
  1687  002B  282D               	goto	l1314
  1688  002C                     u970:	
  1689  002C                     l1312:	
  1690  002C  1442               	bsf	___fldiv@bexp,0
  1691  002D                     l1314:	
  1692  002D  0842               	movf	___fldiv@bexp,w
  1693  002E  1903               	btfsc	3,2
  1694  002F  2831               	goto	u981
  1695  0030  2832               	goto	u980
  1696  0031                     u981:	
  1697  0031  2842               	goto	l1324
  1698  0032                     u980:	
  1699  0032                     l1316:	
  1700  0032  0A42               	incf	___fldiv@bexp,w
  1701  0033  1D03               	btfss	3,2
  1702  0034  2836               	goto	u991
  1703  0035  2837               	goto	u990
  1704  0036                     u991:	
  1705  0036  283F               	goto	l1320
  1706  0037                     u990:	
  1707  0037                     l1318:	
  1708  0037  3000               	movlw	0
  1709  0038  00B1               	movwf	___fldiv@b+3
  1710  0039  3000               	movlw	0
  1711  003A  00B0               	movwf	___fldiv@b+2
  1712  003B  3000               	movlw	0
  1713  003C  00AF               	movwf	___fldiv@b+1
  1714  003D  3000               	movlw	0
  1715  003E  00AE               	movwf	___fldiv@b
  1716  003F                     l1320:	
  1717  003F  17B0               	bsf	___fldiv@b+2,7
  1718  0040                     l1322:	
  1719  0040  01B1               	clrf	___fldiv@b+3
  1720  0041  284A               	goto	l1326
  1721  0042                     l1324:	
  1722  0042  3000               	movlw	0
  1723  0043  00B1               	movwf	___fldiv@b+3
  1724  0044  3000               	movlw	0
  1725  0045  00B0               	movwf	___fldiv@b+2
  1726  0046  3000               	movlw	0
  1727  0047  00AF               	movwf	___fldiv@b+1
  1728  0048  3000               	movlw	0
  1729  0049  00AE               	movwf	___fldiv@b
  1730  004A                     l1326:	
  1731  004A  082D               	movf	___fldiv@a+3,w
  1732  004B  3980               	andlw	128
  1733  004C  00B2               	movwf	??___fldiv
  1734  004D  0832               	movf	??___fldiv,w
  1735  004E  06BB               	xorwf	___fldiv@sign,f
  1736  004F                     l1328:	
  1737  004F  082D               	movf	___fldiv@a+3,w
  1738  0050  00B2               	movwf	??___fldiv
  1739  0051  0732               	addwf	??___fldiv,w
  1740  0052  00B3               	movwf	??___fldiv+1
  1741  0053  0833               	movf	??___fldiv+1,w
  1742  0054  00C3               	movwf	___fldiv@aexp
  1743  0055                     l1330:	
  1744  0055  1FAC               	btfss	___fldiv@a+2,7
  1745  0056  2858               	goto	u1001
  1746  0057  2859               	goto	u1000
  1747  0058                     u1001:	
  1748  0058  285A               	goto	l1334
  1749  0059                     u1000:	
  1750  0059                     l1332:	
  1751  0059  1443               	bsf	___fldiv@aexp,0
  1752  005A                     l1334:	
  1753  005A  0843               	movf	___fldiv@aexp,w
  1754  005B  1903               	btfsc	3,2
  1755  005C  285E               	goto	u1011
  1756  005D  285F               	goto	u1010
  1757  005E                     u1011:	
  1758  005E  286F               	goto	l1344
  1759  005F                     u1010:	
  1760  005F                     l1336:	
  1761  005F  0A43               	incf	___fldiv@aexp,w
  1762  0060  1D03               	btfss	3,2
  1763  0061  2863               	goto	u1021
  1764  0062  2864               	goto	u1020
  1765  0063                     u1021:	
  1766  0063  286C               	goto	l1340
  1767  0064                     u1020:	
  1768  0064                     l1338:	
  1769  0064  3000               	movlw	0
  1770  0065  00AD               	movwf	___fldiv@a+3
  1771  0066  3000               	movlw	0
  1772  0067  00AC               	movwf	___fldiv@a+2
  1773  0068  3000               	movlw	0
  1774  0069  00AB               	movwf	___fldiv@a+1
  1775  006A  3000               	movlw	0
  1776  006B  00AA               	movwf	___fldiv@a
  1777  006C                     l1340:	
  1778  006C  17AC               	bsf	___fldiv@a+2,7
  1779  006D                     l1342:	
  1780  006D  01AD               	clrf	___fldiv@a+3
  1781  006E  2877               	goto	l633
  1782  006F                     l1344:	
  1783  006F  3000               	movlw	0
  1784  0070  00AD               	movwf	___fldiv@a+3
  1785  0071  3000               	movlw	0
  1786  0072  00AC               	movwf	___fldiv@a+2
  1787  0073  3000               	movlw	0
  1788  0074  00AB               	movwf	___fldiv@a+1
  1789  0075  3000               	movlw	0
  1790  0076  00AA               	movwf	___fldiv@a
  1791  0077                     l633:	
  1792  0077  082D               	movf	___fldiv@a+3,w
  1793  0078  042C               	iorwf	___fldiv@a+2,w
  1794  0079  042B               	iorwf	___fldiv@a+1,w
  1795  007A  042A               	iorwf	___fldiv@a,w
  1796  007B  1D03               	skipz
  1797  007C  287E               	goto	u1031
  1798  007D  287F               	goto	u1030
  1799  007E                     u1031:	
  1800  007E  2898               	goto	l1354
  1801  007F                     u1030:	
  1802  007F                     l1346:	
  1803  007F  3000               	movlw	0
  1804  0080  00B1               	movwf	___fldiv@b+3
  1805  0081  3000               	movlw	0
  1806  0082  00B0               	movwf	___fldiv@b+2
  1807  0083  3000               	movlw	0
  1808  0084  00AF               	movwf	___fldiv@b+1
  1809  0085  3000               	movlw	0
  1810  0086  00AE               	movwf	___fldiv@b
  1811  0087  3080               	movlw	128
  1812  0088  04B0               	iorwf	___fldiv@b+2,f
  1813  0089  307F               	movlw	127
  1814  008A  04B1               	iorwf	___fldiv@b+3,f
  1815  008B                     l1348:	
  1816  008B  083B               	movf	___fldiv@sign,w
  1817  008C  00B2               	movwf	??___fldiv
  1818  008D  0832               	movf	??___fldiv,w
  1819  008E  04B1               	iorwf	___fldiv@b+3,f
  1820  008F                     l1350:	
  1821  008F  0831               	movf	___fldiv@b+3,w
  1822  0090  00AD               	movwf	?___fldiv+3
  1823  0091  0830               	movf	___fldiv@b+2,w
  1824  0092  00AC               	movwf	?___fldiv+2
  1825  0093  082F               	movf	___fldiv@b+1,w
  1826  0094  00AB               	movwf	?___fldiv+1
  1827  0095  082E               	movf	___fldiv@b,w
  1828  0096  00AA               	movwf	?___fldiv
  1829  0097  29F7               	goto	l635
  1830  0098                     l1354:	
  1831  0098  0842               	movf	___fldiv@bexp,w
  1832  0099  1D03               	btfss	3,2
  1833  009A  289C               	goto	u1041
  1834  009B  289D               	goto	u1040
  1835  009C                     u1041:	
  1836  009C  28A6               	goto	l1360
  1837  009D                     u1040:	
  1838  009D                     l1356:	
  1839  009D  3000               	movlw	0
  1840  009E  00AD               	movwf	?___fldiv+3
  1841  009F  3000               	movlw	0
  1842  00A0  00AC               	movwf	?___fldiv+2
  1843  00A1  3000               	movlw	0
  1844  00A2  00AB               	movwf	?___fldiv+1
  1845  00A3  3000               	movlw	0
  1846  00A4  00AA               	movwf	?___fldiv
  1847  00A5  29F7               	goto	l635
  1848  00A6                     l1360:	
  1849  00A6  0842               	movf	___fldiv@bexp,w
  1850  00A7  00B2               	movwf	??___fldiv
  1851  00A8  01B3               	clrf	??___fldiv+1
  1852  00A9  0833               	movf	??___fldiv+1,w
  1853  00AA  00B5               	movwf	??___fldiv+3
  1854  00AB  0843               	movf	___fldiv@aexp,w
  1855  00AC  0232               	subwf	??___fldiv,w
  1856  00AD  00B4               	movwf	??___fldiv+2
  1857  00AE  1C03               	skipc
  1858  00AF  03B5               	decf	??___fldiv+3,f
  1859  00B0  0834               	movf	??___fldiv+2,w
  1860  00B1  3E7F               	addlw	127
  1861  00B2  00BC               	movwf	___fldiv@new_exp
  1862  00B3  0835               	movf	??___fldiv+3,w
  1863  00B4  1803               	skipnc
  1864  00B5  3E01               	addlw	1
  1865  00B6  3E00               	addlw	0
  1866  00B7  00BD               	movwf	___fldiv@new_exp+1
  1867  00B8                     l1362:	
  1868  00B8  0831               	movf	___fldiv@b+3,w
  1869  00B9  00BA               	movwf	___fldiv@rem+3
  1870  00BA  0830               	movf	___fldiv@b+2,w
  1871  00BB  00B9               	movwf	___fldiv@rem+2
  1872  00BC  082F               	movf	___fldiv@b+1,w
  1873  00BD  00B8               	movwf	___fldiv@rem+1
  1874  00BE  082E               	movf	___fldiv@b,w
  1875  00BF  00B7               	movwf	___fldiv@rem
  1876  00C0                     l1364:	
  1877  00C0  3000               	movlw	0
  1878  00C1  00B1               	movwf	___fldiv@b+3
  1879  00C2  3000               	movlw	0
  1880  00C3  00B0               	movwf	___fldiv@b+2
  1881  00C4  3000               	movlw	0
  1882  00C5  00AF               	movwf	___fldiv@b+1
  1883  00C6  3000               	movlw	0
  1884  00C7  00AE               	movwf	___fldiv@b
  1885  00C8                     l1366:	
  1886  00C8  3000               	movlw	0
  1887  00C9  00C1               	movwf	___fldiv@grs+3
  1888  00CA  3000               	movlw	0
  1889  00CB  00C0               	movwf	___fldiv@grs+2
  1890  00CC  3000               	movlw	0
  1891  00CD  00BF               	movwf	___fldiv@grs+1
  1892  00CE  3000               	movlw	0
  1893  00CF  00BE               	movwf	___fldiv@grs
  1894  00D0                     l1368:	
  1895  00D0  01C3               	clrf	___fldiv@aexp
  1896  00D1  291C               	goto	l1388
  1897  00D2                     l1370:	
  1898  00D2  0843               	movf	___fldiv@aexp,w
  1899  00D3  1903               	btfsc	3,2
  1900  00D4  28D6               	goto	u1051
  1901  00D5  28D7               	goto	u1050
  1902  00D6                     u1051:	
  1903  00D6  28F7               	goto	l1380
  1904  00D7                     u1050:	
  1905  00D7                     l1372:	
  1906  00D7  3001               	movlw	1
  1907  00D8  00B2               	movwf	??___fldiv
  1908  00D9                     u1065:	
  1909  00D9  1003               	clrc
  1910  00DA  0DB7               	rlf	___fldiv@rem,f
  1911  00DB  0DB8               	rlf	___fldiv@rem+1,f
  1912  00DC  0DB9               	rlf	___fldiv@rem+2,f
  1913  00DD  0DBA               	rlf	___fldiv@rem+3,f
  1914  00DE  0BB2               	decfsz	??___fldiv,f
  1915  00DF  28D9               	goto	u1065
  1916  00E0  3001               	movlw	1
  1917  00E1  00B2               	movwf	??___fldiv
  1918  00E2                     u1075:	
  1919  00E2  1003               	clrc
  1920  00E3  0DAE               	rlf	___fldiv@b,f
  1921  00E4  0DAF               	rlf	___fldiv@b+1,f
  1922  00E5  0DB0               	rlf	___fldiv@b+2,f
  1923  00E6  0DB1               	rlf	___fldiv@b+3,f
  1924  00E7  0BB2               	decfsz	??___fldiv,f
  1925  00E8  28E2               	goto	u1075
  1926  00E9                     l1374:	
  1927  00E9  1FC1               	btfss	___fldiv@grs+3,7
  1928  00EA  28EC               	goto	u1081
  1929  00EB  28ED               	goto	u1080
  1930  00EC                     u1081:	
  1931  00EC  28EE               	goto	l1378
  1932  00ED                     u1080:	
  1933  00ED                     l1376:	
  1934  00ED  142E               	bsf	___fldiv@b,0
  1935  00EE                     l1378:	
  1936  00EE  3001               	movlw	1
  1937  00EF  00B2               	movwf	??___fldiv
  1938  00F0                     u1095:	
  1939  00F0  1003               	clrc
  1940  00F1  0DBE               	rlf	___fldiv@grs,f
  1941  00F2  0DBF               	rlf	___fldiv@grs+1,f
  1942  00F3  0DC0               	rlf	___fldiv@grs+2,f
  1943  00F4  0DC1               	rlf	___fldiv@grs+3,f
  1944  00F5  0BB2               	decfsz	??___fldiv,f
  1945  00F6  28F0               	goto	u1095
  1946  00F7                     l1380:	
  1947  00F7  082D               	movf	___fldiv@a+3,w
  1948  00F8  023A               	subwf	___fldiv@rem+3,w
  1949  00F9  1D03               	skipz
  1950  00FA  2905               	goto	u1105
  1951  00FB  082C               	movf	___fldiv@a+2,w
  1952  00FC  0239               	subwf	___fldiv@rem+2,w
  1953  00FD  1D03               	skipz
  1954  00FE  2905               	goto	u1105
  1955  00FF  082B               	movf	___fldiv@a+1,w
  1956  0100  0238               	subwf	___fldiv@rem+1,w
  1957  0101  1D03               	skipz
  1958  0102  2905               	goto	u1105
  1959  0103  082A               	movf	___fldiv@a,w
  1960  0104  0237               	subwf	___fldiv@rem,w
  1961  0105                     u1105:	
  1962  0105  1C03               	skipc
  1963  0106  2908               	goto	u1101
  1964  0107  2909               	goto	u1100
  1965  0108                     u1101:	
  1966  0108  2918               	goto	l1386
  1967  0109                     u1100:	
  1968  0109                     l1382:	
  1969  0109  1741               	bsf	___fldiv@grs+3,6
  1970  010A                     l1384:	
  1971  010A  082A               	movf	___fldiv@a,w
  1972  010B  02B7               	subwf	___fldiv@rem,f
  1973  010C  082B               	movf	___fldiv@a+1,w
  1974  010D  1C03               	skipc
  1975  010E  0F2B               	incfsz	___fldiv@a+1,w
  1976  010F  02B8               	subwf	___fldiv@rem+1,f
  1977  0110  082C               	movf	___fldiv@a+2,w
  1978  0111  1C03               	skipc
  1979  0112  0F2C               	incfsz	___fldiv@a+2,w
  1980  0113  02B9               	subwf	___fldiv@rem+2,f
  1981  0114  082D               	movf	___fldiv@a+3,w
  1982  0115  1C03               	skipc
  1983  0116  0F2D               	incfsz	___fldiv@a+3,w
  1984  0117  02BA               	subwf	___fldiv@rem+3,f
  1985  0118                     l1386:	
  1986  0118  3001               	movlw	1
  1987  0119  00B2               	movwf	??___fldiv
  1988  011A  0832               	movf	??___fldiv,w
  1989  011B  07C3               	addwf	___fldiv@aexp,f
  1990  011C                     l1388:	
  1991  011C  301A               	movlw	26
  1992  011D  0243               	subwf	___fldiv@aexp,w
  1993  011E  1C03               	skipc
  1994  011F  2921               	goto	u1111
  1995  0120  2922               	goto	u1110
  1996  0121                     u1111:	
  1997  0121  28D2               	goto	l1370
  1998  0122                     u1110:	
  1999  0122                     l1390:	
  2000  0122  083A               	movf	___fldiv@rem+3,w
  2001  0123  0439               	iorwf	___fldiv@rem+2,w
  2002  0124  0438               	iorwf	___fldiv@rem+1,w
  2003  0125  0437               	iorwf	___fldiv@rem,w
  2004  0126  1903               	skipnz
  2005  0127  2929               	goto	u1121
  2006  0128  292A               	goto	u1120
  2007  0129                     u1121:	
  2008  0129  2949               	goto	l1404
  2009  012A                     u1120:	
  2010  012A                     l1392:	
  2011  012A  143E               	bsf	___fldiv@grs,0
  2012  012B  2949               	goto	l1404
  2013  012C                     l1394:	
  2014  012C  3001               	movlw	1
  2015  012D  00B2               	movwf	??___fldiv
  2016  012E                     u1135:	
  2017  012E  1003               	clrc
  2018  012F  0DAE               	rlf	___fldiv@b,f
  2019  0130  0DAF               	rlf	___fldiv@b+1,f
  2020  0131  0DB0               	rlf	___fldiv@b+2,f
  2021  0132  0DB1               	rlf	___fldiv@b+3,f
  2022  0133  0BB2               	decfsz	??___fldiv,f
  2023  0134  292E               	goto	u1135
  2024  0135                     l1396:	
  2025  0135  1FC1               	btfss	___fldiv@grs+3,7
  2026  0136  2938               	goto	u1141
  2027  0137  2939               	goto	u1140
  2028  0138                     u1141:	
  2029  0138  293A               	goto	l1400
  2030  0139                     u1140:	
  2031  0139                     l1398:	
  2032  0139  142E               	bsf	___fldiv@b,0
  2033  013A                     l1400:	
  2034  013A  3001               	movlw	1
  2035  013B  00B2               	movwf	??___fldiv
  2036  013C                     u1155:	
  2037  013C  1003               	clrc
  2038  013D  0DBE               	rlf	___fldiv@grs,f
  2039  013E  0DBF               	rlf	___fldiv@grs+1,f
  2040  013F  0DC0               	rlf	___fldiv@grs+2,f
  2041  0140  0DC1               	rlf	___fldiv@grs+3,f
  2042  0141  0BB2               	decfsz	??___fldiv,f
  2043  0142  293C               	goto	u1155
  2044  0143                     l1402:	
  2045  0143  30FF               	movlw	255
  2046  0144  07BC               	addwf	___fldiv@new_exp,f
  2047  0145  1803               	skipnc
  2048  0146  0ABD               	incf	___fldiv@new_exp+1,f
  2049  0147  30FF               	movlw	255
  2050  0148  07BD               	addwf	___fldiv@new_exp+1,f
  2051  0149                     l1404:	
  2052  0149  1FB0               	btfss	___fldiv@b+2,7
  2053  014A  294C               	goto	u1161
  2054  014B  294D               	goto	u1160
  2055  014C                     u1161:	
  2056  014C  292C               	goto	l1394
  2057  014D                     u1160:	
  2058  014D                     l1406:	
  2059  014D  01C3               	clrf	___fldiv@aexp
  2060  014E                     l1408:	
  2061  014E  1FC1               	btfss	___fldiv@grs+3,7
  2062  014F  2951               	goto	u1171
  2063  0150  2952               	goto	u1170
  2064  0151                     u1171:	
  2065  0151  296E               	goto	l1416
  2066  0152                     u1170:	
  2067  0152                     l1410:	
  2068  0152  30FF               	movlw	255
  2069  0153  053E               	andwf	___fldiv@grs,w
  2070  0154  00B2               	movwf	??___fldiv
  2071  0155  30FF               	movlw	255
  2072  0156  053F               	andwf	___fldiv@grs+1,w
  2073  0157  00B3               	movwf	??___fldiv+1
  2074  0158  30FF               	movlw	255
  2075  0159  0540               	andwf	___fldiv@grs+2,w
  2076  015A  00B4               	movwf	??___fldiv+2
  2077  015B  307F               	movlw	127
  2078  015C  0541               	andwf	___fldiv@grs+3,w
  2079  015D  00B5               	movwf	??___fldiv+3
  2080  015E  0835               	movf	??___fldiv+3,w
  2081  015F  0434               	iorwf	??___fldiv+2,w
  2082  0160  0433               	iorwf	??___fldiv+1,w
  2083  0161  0432               	iorwf	??___fldiv,w
  2084  0162  1903               	skipnz
  2085  0163  2965               	goto	u1181
  2086  0164  2966               	goto	u1180
  2087  0165                     u1181:	
  2088  0165  2969               	goto	l649
  2089  0166                     u1180:	
  2090  0166                     l1412:	
  2091  0166  01C3               	clrf	___fldiv@aexp
  2092  0167  0AC3               	incf	___fldiv@aexp,f
  2093  0168  296E               	goto	l1416
  2094  0169                     l649:	
  2095  0169  1C2E               	btfss	___fldiv@b,0
  2096  016A  296C               	goto	u1191
  2097  016B  296D               	goto	u1190
  2098  016C                     u1191:	
  2099  016C  296E               	goto	l1416
  2100  016D                     u1190:	
  2101  016D  2966               	goto	l1412
  2102  016E                     l1416:	
  2103  016E  0843               	movf	___fldiv@aexp,w
  2104  016F  1903               	btfsc	3,2
  2105  0170  2972               	goto	u1201
  2106  0171  2973               	goto	u1200
  2107  0172                     u1201:	
  2108  0172  29A4               	goto	l1426
  2109  0173                     u1200:	
  2110  0173                     l1418:	
  2111  0173  3001               	movlw	1
  2112  0174  07AE               	addwf	___fldiv@b,f
  2113  0175  3000               	movlw	0
  2114  0176  1803               	skipnc
  2115  0177  3001               	movlw	1
  2116  0178  07AF               	addwf	___fldiv@b+1,f
  2117  0179  3000               	movlw	0
  2118  017A  1803               	skipnc
  2119  017B  3001               	movlw	1
  2120  017C  07B0               	addwf	___fldiv@b+2,f
  2121  017D  3000               	movlw	0
  2122  017E  1803               	skipnc
  2123  017F  3001               	movlw	1
  2124  0180  07B1               	addwf	___fldiv@b+3,f
  2125  0181                     l1420:	
  2126  0181  1C31               	btfss	___fldiv@b+3,0
  2127  0182  2984               	goto	u1211
  2128  0183  2985               	goto	u1210
  2129  0184                     u1211:	
  2130  0184  29A4               	goto	l1426
  2131  0185                     u1210:	
  2132  0185                     l1422:	
  2133  0185  082E               	movf	___fldiv@b,w
  2134  0186  00B2               	movwf	??___fldiv
  2135  0187  082F               	movf	___fldiv@b+1,w
  2136  0188  00B3               	movwf	??___fldiv+1
  2137  0189  0830               	movf	___fldiv@b+2,w
  2138  018A  00B4               	movwf	??___fldiv+2
  2139  018B  0831               	movf	___fldiv@b+3,w
  2140  018C  00B5               	movwf	??___fldiv+3
  2141  018D  3001               	movlw	1
  2142  018E  00B6               	movwf	??___fldiv+4
  2143  018F                     u1225:	
  2144  018F  0D35               	rlf	??___fldiv+3,w
  2145  0190  0CB5               	rrf	??___fldiv+3,f
  2146  0191  0CB4               	rrf	??___fldiv+2,f
  2147  0192  0CB3               	rrf	??___fldiv+1,f
  2148  0193  0CB2               	rrf	??___fldiv,f
  2149  0194                     u1220:	
  2150  0194  0BB6               	decfsz	??___fldiv+4,f
  2151  0195  298F               	goto	u1225
  2152  0196  0835               	movf	??___fldiv+3,w
  2153  0197  00B1               	movwf	___fldiv@b+3
  2154  0198  0834               	movf	??___fldiv+2,w
  2155  0199  00B0               	movwf	___fldiv@b+2
  2156  019A  0833               	movf	??___fldiv+1,w
  2157  019B  00AF               	movwf	___fldiv@b+1
  2158  019C  0832               	movf	??___fldiv,w
  2159  019D  00AE               	movwf	___fldiv@b
  2160  019E                     l1424:	
  2161  019E  3001               	movlw	1
  2162  019F  07BC               	addwf	___fldiv@new_exp,f
  2163  01A0  1803               	skipnc
  2164  01A1  0ABD               	incf	___fldiv@new_exp+1,f
  2165  01A2  3000               	movlw	0
  2166  01A3  07BD               	addwf	___fldiv@new_exp+1,f
  2167  01A4                     l1426:	
  2168  01A4  083D               	movf	___fldiv@new_exp+1,w
  2169  01A5  3A80               	xorlw	128
  2170  01A6  00FF               	movwf	btemp+1
  2171  01A7  3080               	movlw	128
  2172  01A8  027F               	subwf	btemp+1,w
  2173  01A9  1D03               	skipz
  2174  01AA  29AD               	goto	u1235
  2175  01AB  30FF               	movlw	255
  2176  01AC  023C               	subwf	___fldiv@new_exp,w
  2177  01AD                     u1235:	
  2178  01AD  1C03               	skipc
  2179  01AE  29B0               	goto	u1231
  2180  01AF  29B1               	goto	u1230
  2181  01B0                     u1231:	
  2182  01B0  29BF               	goto	l1430
  2183  01B1                     u1230:	
  2184  01B1                     l1428:	
  2185  01B1  30FF               	movlw	255
  2186  01B2  1283               	bcf	3,5	;RP0=0, select bank0
  2187  01B3  1303               	bcf	3,6	;RP1=0, select bank0
  2188  01B4  00BC               	movwf	___fldiv@new_exp
  2189  01B5  3000               	movlw	0
  2190  01B6  00BD               	movwf	___fldiv@new_exp+1
  2191  01B7  3000               	movlw	0
  2192  01B8  00B1               	movwf	___fldiv@b+3
  2193  01B9  3000               	movlw	0
  2194  01BA  00B0               	movwf	___fldiv@b+2
  2195  01BB  3000               	movlw	0
  2196  01BC  00AF               	movwf	___fldiv@b+1
  2197  01BD  3000               	movlw	0
  2198  01BE  00AE               	movwf	___fldiv@b
  2199  01BF                     l1430:	
  2200  01BF  1283               	bcf	3,5	;RP0=0, select bank0
  2201  01C0  1303               	bcf	3,6	;RP1=0, select bank0
  2202  01C1  083D               	movf	___fldiv@new_exp+1,w
  2203  01C2  3A80               	xorlw	128
  2204  01C3  00FF               	movwf	btemp+1
  2205  01C4  3080               	movlw	128
  2206  01C5  027F               	subwf	btemp+1,w
  2207  01C6  1D03               	skipz
  2208  01C7  29CA               	goto	u1245
  2209  01C8  3001               	movlw	1
  2210  01C9  023C               	subwf	___fldiv@new_exp,w
  2211  01CA                     u1245:	
  2212  01CA  1803               	skipnc
  2213  01CB  29CD               	goto	u1241
  2214  01CC  29CE               	goto	u1240
  2215  01CD                     u1241:	
  2216  01CD  29DB               	goto	l655
  2217  01CE                     u1240:	
  2218  01CE                     l1432:	
  2219  01CE  1283               	bcf	3,5	;RP0=0, select bank0
  2220  01CF  1303               	bcf	3,6	;RP1=0, select bank0
  2221  01D0  01BC               	clrf	___fldiv@new_exp
  2222  01D1  01BD               	clrf	___fldiv@new_exp+1
  2223  01D2                     l1434:	
  2224  01D2  3000               	movlw	0
  2225  01D3  00B1               	movwf	___fldiv@b+3
  2226  01D4  3000               	movlw	0
  2227  01D5  00B0               	movwf	___fldiv@b+2
  2228  01D6  3000               	movlw	0
  2229  01D7  00AF               	movwf	___fldiv@b+1
  2230  01D8  3000               	movlw	0
  2231  01D9  00AE               	movwf	___fldiv@b
  2232  01DA                     l1436:	
  2233  01DA  01BB               	clrf	___fldiv@sign
  2234  01DB                     l655:	
  2235  01DB  1283               	bcf	3,5	;RP0=0, select bank0
  2236  01DC  1303               	bcf	3,6	;RP1=0, select bank0
  2237  01DD  083C               	movf	___fldiv@new_exp,w
  2238  01DE  00B2               	movwf	??___fldiv
  2239  01DF  0832               	movf	??___fldiv,w
  2240  01E0  00C2               	movwf	___fldiv@bexp
  2241  01E1                     l1438:	
  2242  01E1  1C42               	btfss	___fldiv@bexp,0
  2243  01E2  29E4               	goto	u1251
  2244  01E3  29E5               	goto	u1250
  2245  01E4                     u1251:	
  2246  01E4  29E7               	goto	l1442
  2247  01E5                     u1250:	
  2248  01E5                     l1440:	
  2249  01E5  17B0               	bsf	___fldiv@b+2,7
  2250  01E6  29EB               	goto	l657
  2251  01E7                     l1442:	
  2252  01E7  307F               	movlw	127
  2253  01E8  00B2               	movwf	??___fldiv
  2254  01E9  0832               	movf	??___fldiv,w
  2255  01EA  05B0               	andwf	___fldiv@b+2,f
  2256  01EB                     l657:	
  2257  01EB  0842               	movf	___fldiv@bexp,w
  2258  01EC  00B2               	movwf	??___fldiv
  2259  01ED  1003               	clrc
  2260  01EE  0C32               	rrf	??___fldiv,w
  2261  01EF  00B3               	movwf	??___fldiv+1
  2262  01F0  0833               	movf	??___fldiv+1,w
  2263  01F1  00B1               	movwf	___fldiv@b+3
  2264  01F2  083B               	movf	___fldiv@sign,w
  2265  01F3  00B2               	movwf	??___fldiv
  2266  01F4  0832               	movf	??___fldiv,w
  2267  01F5  04B1               	iorwf	___fldiv@b+3,f
  2268  01F6  288F               	goto	l1350
  2269  01F7                     l635:	
  2270  01F7  0008               	return
  2271  01F8                     __end_of___fldiv:	
  2272                           
  2273                           	psect	text7
  2274  0330                     __ptext7:	
  2275 ;; *************** function ___awdiv *****************
  2276 ;; Defined at:
  2277 ;;		line 5 in file "C:\Program Files (x86)\Microchip\xc8\v2.10\pic\sources\c90\common\awdiv.c"
  2278 ;; Parameters:    Size  Location     Type
  2279 ;;  divisor         2   50[BANK0 ] int 
  2280 ;;  dividend        2   52[BANK0 ] int 
  2281 ;; Auto vars:     Size  Location     Type
  2282 ;;  quotient        2   57[BANK0 ] int 
  2283 ;;  sign            1   56[BANK0 ] unsigned char 
  2284 ;;  counter         1   55[BANK0 ] unsigned char 
  2285 ;; Return value:  Size  Location     Type
  2286 ;;                  2   50[BANK0 ] int 
  2287 ;; Registers used:
  2288 ;;		wreg, status,2, status,0
  2289 ;; Tracked objects:
  2290 ;;		On entry : 0/0
  2291 ;;		On exit  : 0/0
  2292 ;;		Unchanged: 0/0
  2293 ;; Data sizes:     COMMON   BANK0   BANK1   BANK3   BANK2
  2294 ;;      Params:         0       4       0       0       0
  2295 ;;      Locals:         0       4       0       0       0
  2296 ;;      Temps:          0       1       0       0       0
  2297 ;;      Totals:         0       9       0       0       0
  2298 ;;Total ram usage:        9 bytes
  2299 ;; Hardware stack levels used:    1
  2300 ;; Hardware stack levels required when called:    1
  2301 ;; This function calls:
  2302 ;;		Nothing
  2303 ;; This function is called by:
  2304 ;;		_LOOP
  2305 ;; This function uses a non-reentrant model
  2306 ;;
  2307                           
  2308                           
  2309                           ;psect for function ___awdiv
  2310  0330                     ___awdiv:	
  2311  0330                     l1518:	
  2312                           ;incstack = 0
  2313                           ; Regs used in ___awdiv: [wreg+status,2+status,0]
  2314                           
  2315  0330  1283               	bcf	3,5	;RP0=0, select bank0
  2316  0331  1303               	bcf	3,6	;RP1=0, select bank0
  2317  0332  01D8               	clrf	___awdiv@sign
  2318  0333                     l1520:	
  2319  0333  1FD3               	btfss	___awdiv@divisor+1,7
  2320  0334  2B36               	goto	u1431
  2321  0335  2B37               	goto	u1430
  2322  0336                     u1431:	
  2323  0336  2B3E               	goto	l1526
  2324  0337                     u1430:	
  2325  0337                     l1522:	
  2326  0337  09D2               	comf	___awdiv@divisor,f
  2327  0338  09D3               	comf	___awdiv@divisor+1,f
  2328  0339  0AD2               	incf	___awdiv@divisor,f
  2329  033A  1903               	skipnz
  2330  033B  0AD3               	incf	___awdiv@divisor+1,f
  2331  033C                     l1524:	
  2332  033C  01D8               	clrf	___awdiv@sign
  2333  033D  0AD8               	incf	___awdiv@sign,f
  2334  033E                     l1526:	
  2335  033E  1FD5               	btfss	___awdiv@dividend+1,7
  2336  033F  2B41               	goto	u1441
  2337  0340  2B42               	goto	u1440
  2338  0341                     u1441:	
  2339  0341  2B4B               	goto	l1532
  2340  0342                     u1440:	
  2341  0342                     l1528:	
  2342  0342  09D4               	comf	___awdiv@dividend,f
  2343  0343  09D5               	comf	___awdiv@dividend+1,f
  2344  0344  0AD4               	incf	___awdiv@dividend,f
  2345  0345  1903               	skipnz
  2346  0346  0AD5               	incf	___awdiv@dividend+1,f
  2347  0347                     l1530:	
  2348  0347  3001               	movlw	1
  2349  0348  00D6               	movwf	??___awdiv
  2350  0349  0856               	movf	??___awdiv,w
  2351  034A  06D8               	xorwf	___awdiv@sign,f
  2352  034B                     l1532:	
  2353  034B  01D9               	clrf	___awdiv@quotient
  2354  034C  01DA               	clrf	___awdiv@quotient+1
  2355  034D                     l1534:	
  2356  034D  0852               	movf	___awdiv@divisor,w
  2357  034E  0453               	iorwf	___awdiv@divisor+1,w
  2358  034F  1903               	btfsc	3,2
  2359  0350  2B52               	goto	u1451
  2360  0351  2B53               	goto	u1450
  2361  0352                     u1451:	
  2362  0352  2B8A               	goto	l1554
  2363  0353                     u1450:	
  2364  0353                     l1536:	
  2365  0353  01D7               	clrf	___awdiv@counter
  2366  0354  0AD7               	incf	___awdiv@counter,f
  2367  0355  2B61               	goto	l1542
  2368  0356                     l1538:	
  2369  0356  3001               	movlw	1
  2370  0357                     u1465:	
  2371  0357  1003               	clrc
  2372  0358  0DD2               	rlf	___awdiv@divisor,f
  2373  0359  0DD3               	rlf	___awdiv@divisor+1,f
  2374  035A  3EFF               	addlw	-1
  2375  035B  1D03               	skipz
  2376  035C  2B57               	goto	u1465
  2377  035D                     l1540:	
  2378  035D  3001               	movlw	1
  2379  035E  00D6               	movwf	??___awdiv
  2380  035F  0856               	movf	??___awdiv,w
  2381  0360  07D7               	addwf	___awdiv@counter,f
  2382  0361                     l1542:	
  2383  0361  1FD3               	btfss	___awdiv@divisor+1,7
  2384  0362  2B64               	goto	u1471
  2385  0363  2B65               	goto	u1470
  2386  0364                     u1471:	
  2387  0364  2B56               	goto	l1538
  2388  0365                     u1470:	
  2389  0365                     l1544:	
  2390  0365  3001               	movlw	1
  2391  0366                     u1485:	
  2392  0366  1003               	clrc
  2393  0367  0DD9               	rlf	___awdiv@quotient,f
  2394  0368  0DDA               	rlf	___awdiv@quotient+1,f
  2395  0369  3EFF               	addlw	-1
  2396  036A  1D03               	skipz
  2397  036B  2B66               	goto	u1485
  2398  036C  0853               	movf	___awdiv@divisor+1,w
  2399  036D  0255               	subwf	___awdiv@dividend+1,w
  2400  036E  1D03               	skipz
  2401  036F  2B72               	goto	u1495
  2402  0370  0852               	movf	___awdiv@divisor,w
  2403  0371  0254               	subwf	___awdiv@dividend,w
  2404  0372                     u1495:	
  2405  0372  1C03               	skipc
  2406  0373  2B75               	goto	u1491
  2407  0374  2B76               	goto	u1490
  2408  0375                     u1491:	
  2409  0375  2B7D               	goto	l1550
  2410  0376                     u1490:	
  2411  0376                     l1546:	
  2412  0376  0852               	movf	___awdiv@divisor,w
  2413  0377  02D4               	subwf	___awdiv@dividend,f
  2414  0378  0853               	movf	___awdiv@divisor+1,w
  2415  0379  1C03               	skipc
  2416  037A  03D5               	decf	___awdiv@dividend+1,f
  2417  037B  02D5               	subwf	___awdiv@dividend+1,f
  2418  037C                     l1548:	
  2419  037C  1459               	bsf	___awdiv@quotient,0
  2420  037D                     l1550:	
  2421  037D  3001               	movlw	1
  2422  037E                     u1505:	
  2423  037E  1003               	clrc
  2424  037F  0CD3               	rrf	___awdiv@divisor+1,f
  2425  0380  0CD2               	rrf	___awdiv@divisor,f
  2426  0381  3EFF               	addlw	-1
  2427  0382  1D03               	skipz
  2428  0383  2B7E               	goto	u1505
  2429  0384                     l1552:	
  2430  0384  3001               	movlw	1
  2431  0385  02D7               	subwf	___awdiv@counter,f
  2432  0386  1D03               	btfss	3,2
  2433  0387  2B89               	goto	u1511
  2434  0388  2B8A               	goto	u1510
  2435  0389                     u1511:	
  2436  0389  2B65               	goto	l1544
  2437  038A                     u1510:	
  2438  038A                     l1554:	
  2439  038A  0858               	movf	___awdiv@sign,w
  2440  038B  1903               	btfsc	3,2
  2441  038C  2B8E               	goto	u1521
  2442  038D  2B8F               	goto	u1520
  2443  038E                     u1521:	
  2444  038E  2B94               	goto	l1558
  2445  038F                     u1520:	
  2446  038F                     l1556:	
  2447  038F  09D9               	comf	___awdiv@quotient,f
  2448  0390  09DA               	comf	___awdiv@quotient+1,f
  2449  0391  0AD9               	incf	___awdiv@quotient,f
  2450  0392  1903               	skipnz
  2451  0393  0ADA               	incf	___awdiv@quotient+1,f
  2452  0394                     l1558:	
  2453  0394  085A               	movf	___awdiv@quotient+1,w
  2454  0395  00D3               	movwf	?___awdiv+1
  2455  0396  0859               	movf	___awdiv@quotient,w
  2456  0397  00D2               	movwf	?___awdiv
  2457  0398                     l437:	
  2458  0398  0008               	return
  2459  0399                     __end_of___awdiv:	
  2460                           
  2461                           	psect	text8
  2462  0513                     __ptext8:	
  2463 ;; *************** function _ANALOGICO *****************
  2464 ;; Defined at:
  2465 ;;		line 146 in file "TEMP_SLAVE.c"
  2466 ;; Parameters:    Size  Location     Type
  2467 ;;		None
  2468 ;; Auto vars:     Size  Location     Type
  2469 ;;		None
  2470 ;; Return value:  Size  Location     Type
  2471 ;;                  1    wreg      void 
  2472 ;; Registers used:
  2473 ;;		wreg, status,2, status,0
  2474 ;; Tracked objects:
  2475 ;;		On entry : 0/0
  2476 ;;		On exit  : 0/0
  2477 ;;		Unchanged: 0/0
  2478 ;; Data sizes:     COMMON   BANK0   BANK1   BANK3   BANK2
  2479 ;;      Params:         0       0       0       0       0
  2480 ;;      Locals:         0       0       0       0       0
  2481 ;;      Temps:          2       0       0       0       0
  2482 ;;      Totals:         2       0       0       0       0
  2483 ;;Total ram usage:        2 bytes
  2484 ;; Hardware stack levels used:    1
  2485 ;; Hardware stack levels required when called:    1
  2486 ;; This function calls:
  2487 ;;		Nothing
  2488 ;; This function is called by:
  2489 ;;		_LOOP
  2490 ;; This function uses a non-reentrant model
  2491 ;;
  2492                           
  2493                           
  2494                           ;psect for function _ANALOGICO
  2495  0513                     _ANALOGICO:	
  2496  0513                     l1492:	
  2497                           ;incstack = 0
  2498                           ; Regs used in _ANALOGICO: [wreg+status,2+status,0]
  2499                           
  2500                           
  2501                           ;TEMP_SLAVE.c: 147:     _delay((unsigned long)((1)*(8000000/4000.0)));
  2502  0513  3003               	movlw	3
  2503  0514  00F4               	movwf	??_ANALOGICO+1
  2504  0515  3097               	movlw	151
  2505  0516  00F3               	movwf	??_ANALOGICO
  2506  0517                     u2017:	
  2507  0517  0BF3               	decfsz	??_ANALOGICO,f
  2508  0518  2D17               	goto	u2017
  2509  0519  0BF4               	decfsz	??_ANALOGICO+1,f
  2510  051A  2D17               	goto	u2017
  2511  051B  2D1C               	nop2
  2512  051C                     l1494:	
  2513                           
  2514                           ;TEMP_SLAVE.c: 148:     ADCON0bits.CHS = 0000;
  2515  051C  30C3               	movlw	-61
  2516  051D  1283               	bcf	3,5	;RP0=0, select bank0
  2517  051E  1303               	bcf	3,6	;RP1=0, select bank0
  2518  051F  059F               	andwf	31,f	;volatile
  2519  0520                     l1496:	
  2520                           
  2521                           ;TEMP_SLAVE.c: 149:     ADCON0bits.ADON = 1;
  2522  0520  141F               	bsf	31,0	;volatile
  2523  0521                     l1498:	
  2524                           
  2525                           ;TEMP_SLAVE.c: 150:     ADCON0bits.GO = 1;
  2526  0521  149F               	bsf	31,1	;volatile
  2527  0522                     l125:	
  2528                           ;TEMP_SLAVE.c: 151:     while(ADCON0bits.GO);
  2529                           
  2530  0522  189F               	btfsc	31,1	;volatile
  2531  0523  2D25               	goto	u1401
  2532  0524  2D26               	goto	u1400
  2533  0525                     u1401:	
  2534  0525  2D22               	goto	l125
  2535  0526                     u1400:	
  2536  0526                     l1500:	
  2537                           
  2538                           ;TEMP_SLAVE.c: 152:     ADC = ADRESH;
  2539  0526  081E               	movf	30,w	;volatile
  2540  0527  00F3               	movwf	??_ANALOGICO
  2541  0528  0873               	movf	??_ANALOGICO,w
  2542  0529  00DF               	movwf	_ADC
  2543  052A                     l128:	
  2544  052A  0008               	return
  2545  052B                     __end_of_ANALOGICO:	
  2546                           
  2547                           	psect	text9
  2548  04F9                     __ptext9:	
  2549 ;; *************** function _I2C_Slave_Init *****************
  2550 ;; Defined at:
  2551 ;;		line 85 in file "TEMP_SENSE.c"
  2552 ;; Parameters:    Size  Location     Type
  2553 ;;  address         1    wreg     unsigned char 
  2554 ;; Auto vars:     Size  Location     Type
  2555 ;;  address         1    3[COMMON] unsigned char 
  2556 ;; Return value:  Size  Location     Type
  2557 ;;                  1    wreg      void 
  2558 ;; Registers used:
  2559 ;;		wreg
  2560 ;; Tracked objects:
  2561 ;;		On entry : 0/0
  2562 ;;		On exit  : 0/0
  2563 ;;		Unchanged: 0/0
  2564 ;; Data sizes:     COMMON   BANK0   BANK1   BANK3   BANK2
  2565 ;;      Params:         0       0       0       0       0
  2566 ;;      Locals:         1       0       0       0       0
  2567 ;;      Temps:          0       0       0       0       0
  2568 ;;      Totals:         1       0       0       0       0
  2569 ;;Total ram usage:        1 bytes
  2570 ;; Hardware stack levels used:    1
  2571 ;; Hardware stack levels required when called:    1
  2572 ;; This function calls:
  2573 ;;		Nothing
  2574 ;; This function is called by:
  2575 ;;		_main
  2576 ;; This function uses a non-reentrant model
  2577 ;;
  2578                           
  2579                           
  2580                           ;psect for function _I2C_Slave_Init
  2581  04F9                     _I2C_Slave_Init:	
  2582                           
  2583                           ;incstack = 0
  2584                           ; Regs used in _I2C_Slave_Init: [wreg]
  2585                           ;I2C_Slave_Init@address stored from wreg
  2586  04F9  00F3               	movwf	I2C_Slave_Init@address
  2587  04FA                     l1082:	
  2588                           
  2589                           ;TEMP_SENSE.c: 86:     SSPADD = address;
  2590  04FA  0873               	movf	I2C_Slave_Init@address,w
  2591  04FB  1683               	bsf	3,5	;RP0=1, select bank1
  2592  04FC  1303               	bcf	3,6	;RP1=0, select bank1
  2593  04FD  0093               	movwf	19	;volatile
  2594                           
  2595                           ;TEMP_SENSE.c: 87:     SSPCON = 0x36;
  2596  04FE  3036               	movlw	54
  2597  04FF  1283               	bcf	3,5	;RP0=0, select bank0
  2598  0500  1303               	bcf	3,6	;RP1=0, select bank0
  2599  0501  0094               	movwf	20	;volatile
  2600                           
  2601                           ;TEMP_SENSE.c: 88:     SSPSTAT = 0x80;
  2602  0502  3080               	movlw	128
  2603  0503  1683               	bsf	3,5	;RP0=1, select bank1
  2604  0504  1303               	bcf	3,6	;RP1=0, select bank1
  2605  0505  0094               	movwf	20	;volatile
  2606                           
  2607                           ;TEMP_SENSE.c: 89:     SSPCON2 = 0x01;
  2608  0506  3001               	movlw	1
  2609  0507  0091               	movwf	17	;volatile
  2610  0508                     l1084:	
  2611                           
  2612                           ;TEMP_SENSE.c: 90:     TRISC3 = 1;
  2613  0508  1587               	bsf	7,3	;volatile
  2614  0509                     l1086:	
  2615                           
  2616                           ;TEMP_SENSE.c: 91:     TRISC4 = 1;
  2617  0509  1607               	bsf	7,4	;volatile
  2618  050A                     l1088:	
  2619                           
  2620                           ;TEMP_SENSE.c: 92:     GIE = 1;
  2621  050A  178B               	bsf	11,7	;volatile
  2622  050B                     l1090:	
  2623                           
  2624                           ;TEMP_SENSE.c: 93:     PEIE = 1;
  2625  050B  170B               	bsf	11,6	;volatile
  2626  050C                     l1092:	
  2627                           
  2628                           ;TEMP_SENSE.c: 94:     SSPIF = 0;
  2629  050C  1283               	bcf	3,5	;RP0=0, select bank0
  2630  050D  1303               	bcf	3,6	;RP1=0, select bank0
  2631  050E  118C               	bcf	12,3	;volatile
  2632  050F                     l1094:	
  2633                           
  2634                           ;TEMP_SENSE.c: 95:     SSPIE = 1;
  2635  050F  1683               	bsf	3,5	;RP0=1, select bank1
  2636  0510  1303               	bcf	3,6	;RP1=0, select bank1
  2637  0511  158C               	bsf	12,3	;volatile
  2638  0512                     l198:	
  2639  0512  0008               	return
  2640  0513                     __end_of_I2C_Slave_Init:	
  2641                           
  2642                           	psect	text10
  2643  0399                     __ptext10:	
  2644 ;; *************** function _isr *****************
  2645 ;; Defined at:
  2646 ;;		line 54 in file "TEMP_SLAVE.c"
  2647 ;; Parameters:    Size  Location     Type
  2648 ;;		None
  2649 ;; Auto vars:     Size  Location     Type
  2650 ;;		None
  2651 ;; Return value:  Size  Location     Type
  2652 ;;                  1    wreg      void 
  2653 ;; Registers used:
  2654 ;;		wreg
  2655 ;; Tracked objects:
  2656 ;;		On entry : 0/0
  2657 ;;		On exit  : 0/0
  2658 ;;		Unchanged: 0/0
  2659 ;; Data sizes:     COMMON   BANK0   BANK1   BANK3   BANK2
  2660 ;;      Params:         0       0       0       0       0
  2661 ;;      Locals:         0       0       0       0       0
  2662 ;;      Temps:          3       0       0       0       0
  2663 ;;      Totals:         3       0       0       0       0
  2664 ;;Total ram usage:        3 bytes
  2665 ;; Hardware stack levels used:    1
  2666 ;; This function calls:
  2667 ;;		Nothing
  2668 ;; This function is called by:
  2669 ;;		Interrupt level 1
  2670 ;; This function uses a non-reentrant model
  2671 ;;
  2672                           
  2673                           
  2674                           ;psect for function _isr
  2675  0399                     _isr:	
  2676  0399                     i1l1588:	
  2677                           
  2678                           ;TEMP_SLAVE.c: 55:    if(PIR1bits.SSPIF == 1){
  2679  0399  1283               	bcf	3,5	;RP0=0, select bank0
  2680  039A  1303               	bcf	3,6	;RP1=0, select bank0
  2681  039B  1D8C               	btfss	12,3	;volatile
  2682  039C  2B9E               	goto	u159_21
  2683  039D  2B9F               	goto	u159_20
  2684  039E                     u159_21:	
  2685  039E  2BF5               	goto	i1l106
  2686  039F                     u159_20:	
  2687  039F                     i1l1590:	
  2688                           
  2689                           ;TEMP_SLAVE.c: 57:         SSPCONbits.CKP = 0;
  2690  039F  1214               	bcf	20,4	;volatile
  2691                           
  2692                           ;TEMP_SLAVE.c: 59:         if ((SSPCONbits.SSPOV) || (SSPCONbits.WCOL)){
  2693  03A0  1B14               	btfsc	20,6	;volatile
  2694  03A1  2BA3               	goto	u160_21
  2695  03A2  2BA4               	goto	u160_20
  2696  03A3                     u160_21:	
  2697  03A3  2BA8               	goto	i1l1594
  2698  03A4                     u160_20:	
  2699  03A4                     i1l1592:	
  2700  03A4  1F94               	btfss	20,7	;volatile
  2701  03A5  2BA7               	goto	u161_21
  2702  03A6  2BA8               	goto	u161_20
  2703  03A7                     u161_21:	
  2704  03A7  2BAF               	goto	i1l1602
  2705  03A8                     u161_20:	
  2706  03A8                     i1l1594:	
  2707                           
  2708                           ;TEMP_SLAVE.c: 60:             z = SSPBUF;
  2709  03A8  0813               	movf	19,w	;volatile
  2710  03A9  00F0               	movwf	??_isr
  2711  03AA  0870               	movf	??_isr,w
  2712  03AB  00FA               	movwf	_z
  2713  03AC                     i1l1596:	
  2714                           
  2715                           ;TEMP_SLAVE.c: 61:             SSPCONbits.SSPOV = 0;
  2716  03AC  1314               	bcf	20,6	;volatile
  2717  03AD                     i1l1598:	
  2718                           
  2719                           ;TEMP_SLAVE.c: 62:             SSPCONbits.WCOL = 0;
  2720  03AD  1394               	bcf	20,7	;volatile
  2721  03AE                     i1l1600:	
  2722                           
  2723                           ;TEMP_SLAVE.c: 63:             SSPCONbits.CKP = 1;
  2724  03AE  1614               	bsf	20,4	;volatile
  2725  03AF                     i1l1602:	
  2726                           
  2727                           ;TEMP_SLAVE.c: 66:         if(!SSPSTATbits.D_nA && !SSPSTATbits.R_nW) {
  2728  03AF  1683               	bsf	3,5	;RP0=1, select bank1
  2729  03B0  1303               	bcf	3,6	;RP1=0, select bank1
  2730  03B1  1A94               	btfsc	20,5	;volatile
  2731  03B2  2BB4               	goto	u162_21
  2732  03B3  2BB5               	goto	u162_20
  2733  03B4                     u162_21:	
  2734  03B4  2BD1               	goto	i1l97
  2735  03B5                     u162_20:	
  2736  03B5                     i1l1604:	
  2737  03B5  1914               	btfsc	20,2	;volatile
  2738  03B6  2BB8               	goto	u163_21
  2739  03B7  2BB9               	goto	u163_20
  2740  03B8                     u163_21:	
  2741  03B8  2BD1               	goto	i1l97
  2742  03B9                     u163_20:	
  2743  03B9                     i1l1606:	
  2744                           
  2745                           ;TEMP_SLAVE.c: 68:             z = SSPBUF;
  2746  03B9  1283               	bcf	3,5	;RP0=0, select bank0
  2747  03BA  1303               	bcf	3,6	;RP1=0, select bank0
  2748  03BB  0813               	movf	19,w	;volatile
  2749  03BC  00F0               	movwf	??_isr
  2750  03BD  0870               	movf	??_isr,w
  2751  03BE  00FA               	movwf	_z
  2752  03BF                     i1l1608:	
  2753                           
  2754                           ;TEMP_SLAVE.c: 70:             PIR1bits.SSPIF = 0;
  2755  03BF  118C               	bcf	12,3	;volatile
  2756  03C0                     i1l1610:	
  2757                           
  2758                           ;TEMP_SLAVE.c: 71:             SSPCONbits.CKP = 1;
  2759  03C0  1614               	bsf	20,4	;volatile
  2760  03C1                     i1l98:	
  2761                           ;TEMP_SLAVE.c: 72:             while(!SSPSTATbits.BF);
  2762                           
  2763  03C1  1683               	bsf	3,5	;RP0=1, select bank1
  2764  03C2  1303               	bcf	3,6	;RP1=0, select bank1
  2765  03C3  1C14               	btfss	20,0	;volatile
  2766  03C4  2BC6               	goto	u164_21
  2767  03C5  2BC7               	goto	u164_20
  2768  03C6                     u164_21:	
  2769  03C6  2BC1               	goto	i1l98
  2770  03C7                     u164_20:	
  2771  03C7                     i1l1612:	
  2772                           
  2773                           ;TEMP_SLAVE.c: 73:             PORTD = SSPBUF;
  2774  03C7  1283               	bcf	3,5	;RP0=0, select bank0
  2775  03C8  1303               	bcf	3,6	;RP1=0, select bank0
  2776  03C9  0813               	movf	19,w	;volatile
  2777  03CA  0088               	movwf	8	;volatile
  2778                           
  2779                           ;TEMP_SLAVE.c: 74:             _delay((unsigned long)((250)*(8000000/4000000.0)));
  2780  03CB  30A6               	movlw	166
  2781  03CC  00F0               	movwf	??_isr
  2782  03CD                     u202_27:	
  2783  03CD  0BF0               	decfsz	??_isr,f
  2784  03CE  2BCD               	goto	u202_27
  2785  03CF  0000               	nop
  2786                           
  2787                           ;TEMP_SLAVE.c: 76:         }else if(!SSPSTATbits.D_nA && SSPSTATbits.R_nW){
  2788  03D0  2BF2               	goto	i1l101
  2789  03D1                     i1l97:	
  2790  03D1  1A94               	btfsc	20,5	;volatile
  2791  03D2  2BD4               	goto	u165_21
  2792  03D3  2BD5               	goto	u165_20
  2793  03D4                     u165_21:	
  2794  03D4  2BF2               	goto	i1l101
  2795  03D5                     u165_20:	
  2796  03D5                     i1l1614:	
  2797  03D5  1D14               	btfss	20,2	;volatile
  2798  03D6  2BD8               	goto	u166_21
  2799  03D7  2BD9               	goto	u166_20
  2800  03D8                     u166_21:	
  2801  03D8  2BF2               	goto	i1l101
  2802  03D9                     u166_20:	
  2803  03D9                     i1l1616:	
  2804                           
  2805                           ;TEMP_SLAVE.c: 77:             z = SSPBUF;
  2806  03D9  1283               	bcf	3,5	;RP0=0, select bank0
  2807  03DA  1303               	bcf	3,6	;RP1=0, select bank0
  2808  03DB  0813               	movf	19,w	;volatile
  2809  03DC  00F0               	movwf	??_isr
  2810  03DD  0870               	movf	??_isr,w
  2811  03DE  00FA               	movwf	_z
  2812  03DF                     i1l1618:	
  2813                           
  2814                           ;TEMP_SLAVE.c: 78:             BF = 0;
  2815  03DF  1683               	bsf	3,5	;RP0=1, select bank1
  2816  03E0  1303               	bcf	3,6	;RP1=0, select bank1
  2817  03E1  1014               	bcf	20,0	;volatile
  2818                           
  2819                           ;TEMP_SLAVE.c: 79:             SSPBUF = ADC;
  2820  03E2  1283               	bcf	3,5	;RP0=0, select bank0
  2821  03E3  1303               	bcf	3,6	;RP1=0, select bank0
  2822  03E4  085F               	movf	_ADC,w
  2823  03E5  0093               	movwf	19	;volatile
  2824  03E6                     i1l1620:	
  2825                           
  2826                           ;TEMP_SLAVE.c: 80:             SSPCONbits.CKP = 1;
  2827  03E6  1614               	bsf	20,4	;volatile
  2828                           
  2829                           ;TEMP_SLAVE.c: 81:             _delay((unsigned long)((250)*(8000000/4000000.0)));
  2830  03E7  30A6               	movlw	166
  2831  03E8  00F0               	movwf	??_isr
  2832  03E9                     u203_27:	
  2833  03E9  0BF0               	decfsz	??_isr,f
  2834  03EA  2BE9               	goto	u203_27
  2835  03EB  0000               	nop
  2836  03EC                     i1l103:	
  2837                           ;TEMP_SLAVE.c: 82:             while(SSPSTATbits.BF);
  2838                           
  2839  03EC  1683               	bsf	3,5	;RP0=1, select bank1
  2840  03ED  1303               	bcf	3,6	;RP1=0, select bank1
  2841  03EE  1814               	btfsc	20,0	;volatile
  2842  03EF  2BF1               	goto	u167_21
  2843  03F0  2BF2               	goto	u167_20
  2844  03F1                     u167_21:	
  2845  03F1  2BEC               	goto	i1l103
  2846  03F2                     u167_20:	
  2847  03F2                     i1l101:	
  2848                           
  2849                           ;TEMP_SLAVE.c: 85:         PIR1bits.SSPIF = 0;
  2850  03F2  1283               	bcf	3,5	;RP0=0, select bank0
  2851  03F3  1303               	bcf	3,6	;RP1=0, select bank0
  2852  03F4  118C               	bcf	12,3	;volatile
  2853  03F5                     i1l106:	
  2854  03F5  0872               	movf	??_isr+2,w
  2855  03F6  008A               	movwf	10
  2856  03F7  0E71               	swapf	(??_isr+1)^(0+4294967168),w
  2857  03F8  0083               	movwf	3
  2858  03F9  0EFE               	swapf	btemp,f
  2859  03FA  0E7E               	swapf	btemp,w
  2860  03FB  0009               	retfie
  2861  03FC                     __end_of_isr:	
  2862  007E                     btemp	set	126	;btemp
  2863  007E                     wtemp0	set	126
  2864                           
  2865                           	psect	intentry
  2866  0004                     __pintentry:	
  2867                           ;incstack = 0
  2868                           ; Regs used in _isr: [wreg]
  2869                           
  2870  0004                     interrupt_function:	
  2871  007E                     saved_w	set	btemp
  2872  0004  00FE               	movwf	btemp
  2873  0005  0E03               	swapf	3,w
  2874  0006  00F1               	movwf	??_isr+1
  2875  0007  080A               	movf	10,w
  2876  0008  00F2               	movwf	??_isr+2
  2877  0009  120A  118A  2B99   	ljmp	_isr


Data Sizes:
    Strings     0
    Constant    0
    Data        0
    BSS         6
    Persistent  0
    Stack       0

Auto Spaces:
    Space          Size  Autos    Used
    COMMON           14      9      11
    BANK0            80     60      64
    BANK1            80      0       0
    BANK3            96      0       0
    BANK2            96      0       0

Pointer List with Targets:

    None.

Critical Paths under _main in COMMON

    _calc_dist->___fltol
    ___fltol->___xxtofl
    ___fldiv->___xxtofl

Critical Paths under _isr in COMMON

    None.

Critical Paths under _main in BANK0

    _main->_LOOP
    _LOOP->___awdiv
    _calc_dist->___fltol
    ___fltol->___fldiv
    ___fldiv->___xxtofl
    ___awdiv->_calc_dist

Critical Paths under _isr in BANK0

    None.

Critical Paths under _main in BANK1

    None.

Critical Paths under _isr in BANK1

    None.

Critical Paths under _main in BANK3

    None.

Critical Paths under _isr in BANK3

    None.

Critical Paths under _main in BANK2

    None.

Critical Paths under _isr in BANK2

    None.

Call Graph Tables:

 ---------------------------------------------------------------------------------
 (Depth) Function   	        Calls       Base Space   Used Autos Params    Refs
 ---------------------------------------------------------------------------------
 (0) _main                                                 0     0      0    2770
                     _I2C_Slave_Init
                               _LOOP
                                _PWM
 ---------------------------------------------------------------------------------
 (1) _PWM                                                  0     0      0       0
 ---------------------------------------------------------------------------------
 (1) _LOOP                                                 1     1      0    2755
                                             59 BANK0      1     1      0
                          _ANALOGICO
                            ___awdiv
                          _calc_dist
 ---------------------------------------------------------------------------------
 (2) _calc_dist                                            5     3      2    2303
                                             45 BANK0      5     3      2
                            ___fldiv
                            ___fltol
                           ___xxtofl
 ---------------------------------------------------------------------------------
 (3) ___xxtofl                                            14    10      4     566
                                              3 COMMON     4     0      4
                                              0 BANK0     10    10      0
 ---------------------------------------------------------------------------------
 (3) ___fltol                                             11     7      4     427
                                              7 COMMON     2     2      0
                                             36 BANK0      9     5      4
                            ___fldiv (ARG)
                           ___xxtofl (ARG)
 ---------------------------------------------------------------------------------
 (3) ___fldiv                                             26    18      8    1273
                                             10 BANK0     26    18      8
                           ___xxtofl (ARG)
 ---------------------------------------------------------------------------------
 (2) ___awdiv                                              9     5      4     452
                                             50 BANK0      9     5      4
                          _calc_dist (ARG)
 ---------------------------------------------------------------------------------
 (2) _ANALOGICO                                            2     2      0       0
                                              3 COMMON     2     2      0
 ---------------------------------------------------------------------------------
 (1) _I2C_Slave_Init                                       1     1      0      15
                                              3 COMMON     1     1      0
 ---------------------------------------------------------------------------------
 Estimated maximum stack depth 3
 ---------------------------------------------------------------------------------
 (Depth) Function   	        Calls       Base Space   Used Autos Params    Refs
 ---------------------------------------------------------------------------------
 (4) _isr                                                  3     3      0       0
                                              0 COMMON     3     3      0
 ---------------------------------------------------------------------------------
 Estimated maximum stack depth 4
 ---------------------------------------------------------------------------------

 Call Graph Graphs:

 _main (ROOT)
   _I2C_Slave_Init
   _LOOP
     _ANALOGICO
     ___awdiv
       _calc_dist (ARG)
         ___fldiv
           ___xxtofl (ARG)
         ___fltol
           ___fldiv (ARG)
             ___xxtofl (ARG)
           ___xxtofl (ARG)
         ___xxtofl
     _calc_dist
       ___fldiv
         ___xxtofl (ARG)
       ___fltol
         ___fldiv (ARG)
           ___xxtofl (ARG)
         ___xxtofl (ARG)
       ___xxtofl
   _PWM

 _isr (ROOT)

 Address spaces:
Name               Size   Autos  Total    Cost      Usage
BITCOMMON            E      0       0       0        0.0%
EEDATA             100      0       0       0        0.0%
NULL                 0      0       0       0        0.0%
CODE                 0      0       0       0        0.0%
COMMON               E      9       B       1       78.6%
BITSFR0              0      0       0       1        0.0%
SFR0                 0      0       0       1        0.0%
BITSFR1              0      0       0       2        0.0%
SFR1                 0      0       0       2        0.0%
STACK                0      0       0       2        0.0%
ABS                  0      0      4B       3        0.0%
BITBANK0            50      0       0       4        0.0%
BITSFR3              0      0       0       4        0.0%
SFR3                 0      0       0       4        0.0%
BANK0               50     3C      40       5       80.0%
BITSFR2              0      0       0       5        0.0%
SFR2                 0      0       0       5        0.0%
BITBANK1            50      0       0       6        0.0%
BANK1               50      0       0       7        0.0%
BITBANK3            60      0       0       8        0.0%
BANK3               60      0       0       9        0.0%
BITBANK2            60      0       0      10        0.0%
BANK2               60      0       0      11        0.0%
DATA                 0      0      4B      12        0.0%


Microchip Technology PIC Macro Assembler V2.10 build 88905656 
Symbol Table                                                                                   Wed Mar 11 12:19:03 2020

            ___fldiv@aexp 0043              ___fldiv@bexp 0042                         _z 007A  
            ___fldiv@sign 003B               __CFG_CP$OFF 0000               _SSPSTATbits 0094  
                      _BF 04A0                        _S1 005C        __size_of_ANALOGICO 0018  
            ___awdiv@sign 0058                       l111 04DA                       l114 0452  
                     l115 0463                       l131 04F0                       l140 0410  
                     l125 0522                       l133 04F4                       l142 0414  
                     l134 04F8                       l143 0451                       l128 052A  
                     l137 040B                       l139 040F                       _ADC 005F  
                     l437 0398                       l198 0512                       l470 032F  
                     l711 021C                       l480 032F                       l633 0077  
                     l713 02B3                       l635 01F7                       l724 027D  
                     l477 031A                       l725 0289                       l717 0261  
                     l655 01DB                       l657 01EB                       l649 0169  
                     _GIE 005F                       _RD0 0040                       _RD1 0041  
                     _PR2 0092              __CFG_CPD$OFF 0000                       u670 04F4  
                     u671 04F3                       u970 002C                       u971 002B  
                     u980 0032                       u981 0031                       u990 0037  
                     u991 0036                       _PWM 04DD                       _isr 0399  
            __CFG_LVP$OFF 0000                      ?_PWM 0070              ___fltol@exp1 0078  
                    l1100 04E2                      l1110 04EB                      l1102 04E5  
                    l1112 04EC                      l1104 04E6                      l1114 04ED  
                    l1106 04E7                      l1116 04EF                      l1108 04EA  
                    l1310 0028                      l1400 013A                      l1320 003F  
                    l1312 002C                      l1090 050B                      l1082 04FA  
                    l1410 0152                      l1402 0143                      l1330 0055  
                    l1322 0040                      l1314 002D                      l1306 001B  
                    l1092 050C                      l1084 0508                      l1500 0526  
                    l1420 0181                      l1412 0166                      l1404 0149  
                    l1340 006C                      l1332 0059                      l1316 0032  
                    l1324 0042                      l1308 0022                      l1094 050F  
                    l1086 0509                      l1430 01BF                      l1422 0185  
                    l1406 014D                      l1350 008F                      l1342 006D  
                    l1334 005A                      l1326 004A                      l1318 0037  
                    l1088 050A                      l1520 0333                      l1440 01E5  
                    l1432 01CE                      l1424 019E                      l1416 016E  
                    l1408 014E                      l1360 00A6                      l1336 005F  
                    l1344 006F                      l1328 004F                      l1096 04DD  
                    l1530 0347                      l1522 0337                      l1442 01E7  
                    l1434 01D2                      l1418 0173                      l1426 01A4  
                    l1370 00D2                      l1362 00B8                      l1346 007F  
                    l1354 0098                      l1338 0064                      l1098 04E0  
                    l1540 035D                      l1532 034B                      l1524 033C  
                    l1436 01DA                      l1428 01B1                      l1372 00D7  
                    l1380 00F7                      l1364 00C0                      l1356 009D  
                    l1348 008B                      l1700 030F                      l1550 037D  
                    l1542 0361                      l1534 034D                      l1526 033E  
                    l1518 0330                      l1438 01E1                      l1390 0122  
                    l1382 0109                      l1374 00E9                      l1366 00C8  
                    l1702 031F                      l1710 0204                      l1552 0384  
                    l1544 0365                      l1536 0353                      l1528 0342  
                    l1392 012A                      l1384 010A                      l1376 00ED  
                    l1368 00D0                      l1704 0324                      l1720 0232  
                    l1712 0214                      l1800 04AC                      l1546 0376  
                    l1538 0356                      l1554 038A                      l1394 012C  
                    l1386 0118                      l1378 00EE                      l1730 0268  
                    l1722 023F                      l1714 0224                      l1706 01FB  
                    l1810 04B4                      l1802 04AE                      l1492 0513  
                    l1556 038F                      l1548 037C                      l1396 0135  
                    l1388 011C                      l1740 02A1                      l1732 0273  
                    l1724 0246                      l1708 0200                      l1820 04BE  
                    l1812 04B8                      l1804 04AF                      l1494 051C  
                    l1558 0394                      l1398 0139                      l1670 02B4  
                    l1742 02A6                      l1734 0277                      l1726 024A  
                    l1718 022D                      l1750 03FC                      l1830 04C9  
                    l1822 04BF                      l1814 04B9                      l1806 04B1  
                    l1496 0520                      l1680 02E0                      l1672 02C1  
                    l1744 02AA                      l1736 0281                      l1728 0258  
                    l1760 044D                      l1752 0400                      l1832 04CA  
                    l1824 04C4                      l1816 04BC                      l1808 04B3  
                    l1498 0521                      l1682 02E8                      l1746 02AB  
                    l1738 028B                      l1754 0401                      l1770 0461  
                    l1834 04D0                      l1826 04C5                      l1818 04BD  
                    l1692 02F6                      l1684 02EA                      l1676 02CA  
                    l1756 0408                      l1780 0479                      l1772 0469  
                    l1764 0452                      l1836 04D5                      l1828 04C8  
                    l1686 02EE                      l1694 0308                      l1678 02DF  
                    l1758 0415                      l1782 047B                      l1774 046E  
                    l1766 0457                      l1790 04A2                      l1784 0495  
                    l1776 046F                      l1768 045F                      l1792 04A8  
                    l1786 049A                      l1778 0474                      l1794 04A9  
                    l1788 049C                      l1796 04AA                      l1798 04AB  
                    ?_isr 0070                      u1000 0059                      u1001 0058  
                    u1010 005F                      u1011 005E                      u1100 0109  
                    u1020 0064                      u1101 0108                      u1021 0063  
                    u1110 0122                      u1030 007F                      u1111 0121  
                    u1031 007E                      u1200 0173                      u1120 012A  
                    u1040 009D                      u1201 0172                      u1121 0129  
                    u1105 0105                      u1041 009C                      u1210 0185  
                    u1050 00D7                      u1211 0184                      u1051 00D6  
                    u1220 0194                      u1140 0139                      u1141 0138  
                    u1230 01B1                      u1231 01B0                      u1135 012E  
                    u2007 0405                      u1400 0526                      u1240 01CE  
                    u1160 014D                      u1080 00ED                      u1401 0525  
                    u2017 0517                      u1241 01CD                      u1225 018F  
                    u1161 014C                      u1081 00EC                      u1065 00D9  
                    u1250 01E5                      u1170 0152                      u1251 01E4  
                    u1235 01AD                      u1171 0151                      u1155 013C  
                    u1075 00E2                      u1180 0166                      u1245 01CA  
                    u1181 0165                      u1510 038A                      u1430 0337  
                    u1190 016D                      u1511 0389                      u1431 0336  
                    u1191 016C                      u1095 00F0                      u1520 038F  
                    u1440 0342                      u1521 038E                      u1505 037E  
                    u1441 0341                      u1450 0353                      u1451 0352  
                    u1700 02EE                      u1701 02ED                      u1470 0365  
                    u1710 02F5                      u1471 0364                      u1711 02F4  
                    u1800 0224                      u1465 0357                      u1801 0223  
                    u1490 0376                      u1730 0307                      u1491 0375  
                    u1731 0306                      u1740 030E                      u1900 02A6  
                    u1820 0245                      u1485 0366                      u1741 030D  
                    u1725 02F7                      u1901 02A5                      u1821 0244  
                    u1910 02AA                      u1495 0372                      u1911 02A9  
                    u1815 0237                      u1760 031F                      u1680 02C1  
                    u1840 0267                      u1920 040F                      u1761 031E  
                    u1681 02C0                      u1841 0266                      u1921 040E  
                    u1770 0324                      u1690 02D8                      u1930 0414  
                    u1771 0323                      u1755 0311                      u1835 0259  
                    u1931 0413                      u1860 0277                      u1780 0200  
                    u1940 045F                      u1861 0276                      u1781 01FF  
                    u1941 045E                      u1870 027D                      u1790 0204  
                    u1950 0469                      u1695 02D3                      u1871 027C  
                    u1855 026C                      u1791 0203                      u1951 0468  
                    u1880 0281                      u1960 046E                      u1881 0280  
                    u1961 046D                      u1890 0296                      u1970 0474  
                    u1971 0473                      _PEIE 005E                      u1980 0479  
                    u1981 0478                      u1990 049A                      u1895 0291  
                    u1991 0499                      i1l97 03D1                      i1l98 03C1  
                    _LOOP 0452                      _TMR1 000E              __CFG_WRT$OFF 0000  
                    _dist 005D                      _main 04A2                      btemp 007E  
                    start 000C             __CFG_IESO$OFF 0000           ___fldiv@new_exp 003C  
             _ultrasonico 005E                     ??_PWM 0073                     ??_isr 0070  
                   ?_LOOP 0070             ___fltol@sign1 0077                     ?_main 0070  
         __end_of___fldiv 01F8           __end_of___awdiv 0399             __CFG_WDTE$OFF 0000  
         __end_of___fltol 0330                     _ANSEL 0188           ___awdiv@divisor 0052  
                   i1l101 03F2                     i1l103 03EC                     i1l106 03F5  
         ___awdiv@counter 0057                     _PORTA 0005                     _PORTB 0006  
                   _PORTC 0007                     _PORTD 0008                     _PORTE 0009  
                   _TRISA 0085                     _TRISB 0086                     _TRISC 0087  
                   _TRISD 0088                     _SSPIE 0463                     _TRISE 0089  
                   _SSPIF 0063            __CFG_FCMEN$OFF 0000            __CFG_BOREN$OFF 0000  
                   pclath 000A         __end_of_ANALOGICO 052B                     status 0003  
                   wtemp0 007E              __end_of_LOOP 04A2            __CFG_MCLRE$OFF 0000  
         __initialization 000F              __end_of_main 04DD                    ??_LOOP 005B  
                  ??_main 0079                    _ADRESH 001E                    _CCPR1L 0015  
        ___awdiv@dividend 0054                    _ANSELH 0189                    i1l1600 03AE  
                  i1l1610 03C0                    i1l1602 03AF                    i1l1620 03E6  
                  i1l1612 03C7                    i1l1604 03B5                    i1l1614 03D5  
                  i1l1606 03B9                    i1l1616 03D9                    i1l1608 03BF  
                  i1l1618 03DF                    i1l1590 039F                    i1l1592 03A4  
                  i1l1594 03A8                    i1l1596 03AC                    i1l1588 0399  
                  i1l1598 03AD                    u202_27 03CD                    u203_27 03E9  
                  u160_20 03A4                    u160_21 03A3                    u161_20 03A8  
                  u161_21 03A7                    u162_20 03B5                    u162_21 03B4  
                  u163_20 03B9                    u163_21 03B8                    u164_20 03C7  
                  u164_21 03C6                    u165_20 03D5                    u165_21 03D4  
                  u166_20 03D9                    u166_21 03D8                    u167_20 03F2  
                  u159_20 039F                    u167_21 03F1                    u159_21 039E  
                  _TMR2IF 0061                    _TMR1ON 0080                    _SSPADD 0093  
                  _TRISC2 043A                    _TRISC3 043B                    _TRISC4 043C  
                  _SSPBUF 0013                    _SSPCON 0014          __end_of___xxtofl 02B4  
          __CFG_PWRTE$OFF 0000                 ??___fldiv 0032                 ??___awdiv 0056  
               ??___fltol 0048          ___awdiv@quotient 0059                    saved_w 007E  
            ___xxtofl@arg 0026              ___xxtofl@exp 0025              ___xxtofl@val 0073  
 __end_of__initialization 0017                ___fltol@f1 0044        __size_of_calc_dist 0056  
          __pcstackCOMMON 0070   __size_of_I2C_Slave_Init 001A     I2C_Slave_Init@address 0073  
              __pbssBANK0 005C                __pmaintext 04A2                __pintentry 0004  
               ?___xxtofl 0073         __end_of_calc_dist 0452                   _SSPCON2 0091  
                 _SSPSTAT 0094                 _ANALOGICO 0513                   ___fldiv 001B  
                 ___awdiv 0330                   ___fltol 02B4                   __ptext1 04DD  
                 __ptext2 0452                   __ptext3 03FC                   __ptext4 01F8  
                 __ptext5 02B4                   __ptext6 001B                   __ptext7 0330  
                 __ptext8 0513                   __ptext9 04F9              __size_of_PWM 001C  
               _T2CONbits 0012              __size_of_isr 0063                ??___xxtofl 0020  
    end_of_initialization 0017                ?_ANALOGICO 0070            _I2C_Slave_Init 04F9  
           ___xxtofl@sign 0024                 _TRISCbits 0087               ___fldiv@grs 003E  
             ___fldiv@rem 0037               _CCP1CONbits 0017    __end_of_I2C_Slave_Init 0513  
     start_initialization 000F               __end_of_PWM 04F9               __end_of_isr 03FC  
__CFG_FOSC$INTRC_NOCLKOUT 0000               ??_ANALOGICO 0073           ?_I2C_Slave_Init 0070  
               ___fldiv@a 002A                 ___fldiv@b 002E               __pbssCOMMON 0079  
               ___latbits 0002             __pcstackBANK0 0020         __size_of___xxtofl 00BC  
               _calc_dist 03FC                  ?___fldiv 002A                  ?___awdiv 0052  
                ?___fltol 0044                ?_calc_dist 004D         interrupt_function 0004  
                _PIR1bits 000C         calc_dist@distance 0050                _ADCON0bits 001F  
              _ADCON1bits 009F          __size_of___fldiv 01DD          __size_of___awdiv 0069  
        __size_of___fltol 007C                  ___xxtofl 01F8                  __ptext10 0399  
       __CFG_BOR4V$BOR40V 0000                  _distance 0079             __size_of_LOOP 0050  
             ??_calc_dist 004F          ??_I2C_Slave_Init 0073             __size_of_main 003B  
                intlevel1 0000                _OSCCONbits 008F               _SSPCON2bits 0091  
              _SSPCONbits 0014  
