

Microchip MPLAB XC8 Assembler V2.10 build 88905656 
                                                                                               Wed Mar 18 01:16:45 2020

Microchip MPLAB XC8 C Compiler v2.10 (Free license) build 20190730164152 Og1 
     1                           	processor	16F887
     2                           	opt	pw 120
     3                           	opt	flic
     4                           	psect	cinit,global,class=CODE,merge=1,delta=2
     5                           	psect	bssCOMMON,global,class=COMMON,space=1,delta=1
     6                           	psect	bssBANK0,global,class=BANK0,space=1,delta=1
     7                           	psect	clrtext,global,class=CODE,delta=2
     8                           	psect	cstackCOMMON,global,class=COMMON,space=1,delta=1
     9                           	psect	cstackBANK0,global,class=BANK0,space=1,delta=1
    10                           	psect	maintext,global,class=CODE,split=1,delta=2
    11                           	psect	text1,local,class=CODE,merge=1,delta=2,group=2
    12                           	psect	text2,local,class=CODE,merge=1,delta=2,group=2
    13                           	psect	text3,local,class=CODE,merge=1,delta=2,group=2
    14                           	psect	text4,local,class=CODE,merge=1,delta=2,group=1
    15                           	psect	text5,local,class=CODE,merge=1,delta=2,group=1
    16                           	psect	text6,local,class=CODE,merge=1,delta=2
    17                           	psect	text7,local,class=CODE,merge=1,delta=2,group=1
    18                           	psect	text8,local,class=CODE,merge=1,delta=2,group=1
    19                           	psect	text9,local,class=CODE,merge=1,delta=2
    20                           	psect	text10,local,class=CODE,merge=1,delta=2
    21                           	psect	text11,local,class=CODE,merge=1,delta=2
    22                           	psect	text12,local,class=CODE,merge=1,delta=2
    23                           	psect	text13,local,class=CODE,merge=1,delta=2
    24                           	psect	text14,local,class=CODE,merge=1,delta=2
    25                           	psect	text15,local,class=CODE,merge=1,delta=2
    26                           	psect	text16,local,class=CODE,merge=1,delta=2
    27                           	psect	intentry,global,class=CODE,delta=2
    28                           	dabs	1,0x7E,2
    29  0000                     
    30                           ; Version 2.10
    31                           ; Generated 31/07/2019 GMT
    32                           ; 
    33                           ; Copyright © 2019, Microchip Technology Inc. and its subsidiaries ("Microchip")
    34                           ; All rights reserved.
    35                           ; 
    36                           ; This software is developed by Microchip Technology Inc. and its subsidiaries ("Microch
      +                          ip").
    37                           ; 
    38                           ; Redistribution and use in source and binary forms, with or without modification, are
    39                           ; permitted provided that the following conditions are met:
    40                           ; 
    41                           ;     1. Redistributions of source code must retain the above copyright notice, this lis
      +                          t of
    42                           ;        conditions and the following disclaimer.
    43                           ; 
    44                           ;     2. Redistributions in binary form must reproduce the above copyright notice, this 
      +                          list
    45                           ;        of conditions and the following disclaimer in the documentation and/or other
    46                           ;        materials provided with the distribution.
    47                           ; 
    48                           ;     3. Microchip's name may not be used to endorse or promote products derived from th
      +                          is
    49                           ;        software without specific prior written permission.
    50                           ; 
    51                           ; THIS SOFTWARE IS PROVIDED BY MICROCHIP "AS IS" AND ANY EXPRESS OR IMPLIED WARRANTIES,
    52                           ; INCLUDING, BUT NOT LIMITED TO, THE IMPLIED WARRANTIES OF MERCHANTABILITY AND FITNESS F
      +                          OR
    53                           ; PURPOSE ARE DISCLAIMED.  IN NO EVENT SHALL MICROCHIP BE LIABLE FOR ANY DIRECT, INDIREC
      +                          T,
    54                           ; INCIDENTAL, SPECIAL, EXEMPLARY, OR CONSEQUENTIAL DAMAGES (INCLUDING BUT NOT LIMITED TO
    55                           ; PROCUREMENT OF SUBSTITUTE GOODS OR SERVICES; LOSS OF USE, DATA OR PROFITS; OR BUSINESS
    56                           ; INTERRUPTION) HOWSOEVER CAUSED AND ON ANY THEORY OF LIABILITY, WHETHER IN CONTRACT, ST
      +                          RICT
    57                           ; LIABILITY, OR TORT (INCLUDING NEGLIGENCE OR OTHERWISE) ARISING IN ANY WAY OUT OF THE U
      +                          SE OF
    58                           ; THIS SOFTWARE, EVEN IF ADVISED OF THE POSSIBILITY OF SUCH DAMAGE.
    59                           ; 
    60                           ; 
    61                           ; Code-generator required, PIC16F887 Definitions
    62                           ; 
    63                           ; SFR Addresses
    64  0000                     	;# 
    65  0001                     	;# 
    66  0002                     	;# 
    67  0003                     	;# 
    68  0004                     	;# 
    69  0005                     	;# 
    70  0006                     	;# 
    71  0007                     	;# 
    72  0008                     	;# 
    73  0009                     	;# 
    74  000A                     	;# 
    75  000B                     	;# 
    76  000C                     	;# 
    77  000D                     	;# 
    78  000E                     	;# 
    79  000E                     	;# 
    80  000F                     	;# 
    81  0010                     	;# 
    82  0011                     	;# 
    83  0012                     	;# 
    84  0013                     	;# 
    85  0014                     	;# 
    86  0015                     	;# 
    87  0015                     	;# 
    88  0016                     	;# 
    89  0017                     	;# 
    90  0018                     	;# 
    91  0019                     	;# 
    92  001A                     	;# 
    93  001B                     	;# 
    94  001B                     	;# 
    95  001C                     	;# 
    96  001D                     	;# 
    97  001E                     	;# 
    98  001F                     	;# 
    99  0081                     	;# 
   100  0085                     	;# 
   101  0086                     	;# 
   102  0087                     	;# 
   103  0088                     	;# 
   104  0089                     	;# 
   105  008C                     	;# 
   106  008D                     	;# 
   107  008E                     	;# 
   108  008F                     	;# 
   109  0090                     	;# 
   110  0091                     	;# 
   111  0092                     	;# 
   112  0093                     	;# 
   113  0093                     	;# 
   114  0093                     	;# 
   115  0094                     	;# 
   116  0095                     	;# 
   117  0096                     	;# 
   118  0097                     	;# 
   119  0098                     	;# 
   120  0099                     	;# 
   121  009A                     	;# 
   122  009B                     	;# 
   123  009C                     	;# 
   124  009D                     	;# 
   125  009E                     	;# 
   126  009F                     	;# 
   127  0105                     	;# 
   128  0107                     	;# 
   129  0108                     	;# 
   130  0109                     	;# 
   131  010C                     	;# 
   132  010C                     	;# 
   133  010D                     	;# 
   134  010E                     	;# 
   135  010F                     	;# 
   136  0185                     	;# 
   137  0187                     	;# 
   138  0188                     	;# 
   139  0189                     	;# 
   140  018C                     	;# 
   141  018D                     	;# 
   142  0000                     	;# 
   143  0001                     	;# 
   144  0002                     	;# 
   145  0003                     	;# 
   146  0004                     	;# 
   147  0005                     	;# 
   148  0006                     	;# 
   149  0007                     	;# 
   150  0008                     	;# 
   151  0009                     	;# 
   152  000A                     	;# 
   153  000B                     	;# 
   154  000C                     	;# 
   155  000D                     	;# 
   156  000E                     	;# 
   157  000E                     	;# 
   158  000F                     	;# 
   159  0010                     	;# 
   160  0011                     	;# 
   161  0012                     	;# 
   162  0013                     	;# 
   163  0014                     	;# 
   164  0015                     	;# 
   165  0015                     	;# 
   166  0016                     	;# 
   167  0017                     	;# 
   168  0018                     	;# 
   169  0019                     	;# 
   170  001A                     	;# 
   171  001B                     	;# 
   172  001B                     	;# 
   173  001C                     	;# 
   174  001D                     	;# 
   175  001E                     	;# 
   176  001F                     	;# 
   177  0081                     	;# 
   178  0085                     	;# 
   179  0086                     	;# 
   180  0087                     	;# 
   181  0088                     	;# 
   182  0089                     	;# 
   183  008C                     	;# 
   184  008D                     	;# 
   185  008E                     	;# 
   186  008F                     	;# 
   187  0090                     	;# 
   188  0091                     	;# 
   189  0092                     	;# 
   190  0093                     	;# 
   191  0093                     	;# 
   192  0093                     	;# 
   193  0094                     	;# 
   194  0095                     	;# 
   195  0096                     	;# 
   196  0097                     	;# 
   197  0098                     	;# 
   198  0099                     	;# 
   199  009A                     	;# 
   200  009B                     	;# 
   201  009C                     	;# 
   202  009D                     	;# 
   203  009E                     	;# 
   204  009F                     	;# 
   205  0105                     	;# 
   206  0107                     	;# 
   207  0108                     	;# 
   208  0109                     	;# 
   209  010C                     	;# 
   210  010C                     	;# 
   211  010D                     	;# 
   212  010E                     	;# 
   213  010F                     	;# 
   214  0185                     	;# 
   215  0187                     	;# 
   216  0188                     	;# 
   217  0189                     	;# 
   218  018C                     	;# 
   219  018D                     	;# 
   220  0000                     	;# 
   221  0001                     	;# 
   222  0002                     	;# 
   223  0003                     	;# 
   224  0004                     	;# 
   225  0005                     	;# 
   226  0006                     	;# 
   227  0007                     	;# 
   228  0008                     	;# 
   229  0009                     	;# 
   230  000A                     	;# 
   231  000B                     	;# 
   232  000C                     	;# 
   233  000D                     	;# 
   234  000E                     	;# 
   235  000E                     	;# 
   236  000F                     	;# 
   237  0010                     	;# 
   238  0011                     	;# 
   239  0012                     	;# 
   240  0013                     	;# 
   241  0014                     	;# 
   242  0015                     	;# 
   243  0015                     	;# 
   244  0016                     	;# 
   245  0017                     	;# 
   246  0018                     	;# 
   247  0019                     	;# 
   248  001A                     	;# 
   249  001B                     	;# 
   250  001B                     	;# 
   251  001C                     	;# 
   252  001D                     	;# 
   253  001E                     	;# 
   254  001F                     	;# 
   255  0081                     	;# 
   256  0085                     	;# 
   257  0086                     	;# 
   258  0087                     	;# 
   259  0088                     	;# 
   260  0089                     	;# 
   261  008C                     	;# 
   262  008D                     	;# 
   263  008E                     	;# 
   264  008F                     	;# 
   265  0090                     	;# 
   266  0091                     	;# 
   267  0092                     	;# 
   268  0093                     	;# 
   269  0093                     	;# 
   270  0093                     	;# 
   271  0094                     	;# 
   272  0095                     	;# 
   273  0096                     	;# 
   274  0097                     	;# 
   275  0098                     	;# 
   276  0099                     	;# 
   277  009A                     	;# 
   278  009B                     	;# 
   279  009C                     	;# 
   280  009D                     	;# 
   281  009E                     	;# 
   282  009F                     	;# 
   283  0105                     	;# 
   284  0107                     	;# 
   285  0108                     	;# 
   286  0109                     	;# 
   287  010C                     	;# 
   288  010C                     	;# 
   289  010D                     	;# 
   290  010E                     	;# 
   291  010F                     	;# 
   292  0185                     	;# 
   293  0187                     	;# 
   294  0188                     	;# 
   295  0189                     	;# 
   296  018C                     	;# 
   297  018D                     	;# 
   298  0000                     	;# 
   299  0001                     	;# 
   300  0002                     	;# 
   301  0003                     	;# 
   302  0004                     	;# 
   303  0005                     	;# 
   304  0006                     	;# 
   305  0007                     	;# 
   306  0008                     	;# 
   307  0009                     	;# 
   308  000A                     	;# 
   309  000B                     	;# 
   310  000C                     	;# 
   311  000D                     	;# 
   312  000E                     	;# 
   313  000E                     	;# 
   314  000F                     	;# 
   315  0010                     	;# 
   316  0011                     	;# 
   317  0012                     	;# 
   318  0013                     	;# 
   319  0014                     	;# 
   320  0015                     	;# 
   321  0015                     	;# 
   322  0016                     	;# 
   323  0017                     	;# 
   324  0018                     	;# 
   325  0019                     	;# 
   326  001A                     	;# 
   327  001B                     	;# 
   328  001B                     	;# 
   329  001C                     	;# 
   330  001D                     	;# 
   331  001E                     	;# 
   332  001F                     	;# 
   333  0081                     	;# 
   334  0085                     	;# 
   335  0086                     	;# 
   336  0087                     	;# 
   337  0088                     	;# 
   338  0089                     	;# 
   339  008C                     	;# 
   340  008D                     	;# 
   341  008E                     	;# 
   342  008F                     	;# 
   343  0090                     	;# 
   344  0091                     	;# 
   345  0092                     	;# 
   346  0093                     	;# 
   347  0093                     	;# 
   348  0093                     	;# 
   349  0094                     	;# 
   350  0095                     	;# 
   351  0096                     	;# 
   352  0097                     	;# 
   353  0098                     	;# 
   354  0099                     	;# 
   355  009A                     	;# 
   356  009B                     	;# 
   357  009C                     	;# 
   358  009D                     	;# 
   359  009E                     	;# 
   360  009F                     	;# 
   361  0105                     	;# 
   362  0107                     	;# 
   363  0108                     	;# 
   364  0109                     	;# 
   365  010C                     	;# 
   366  010C                     	;# 
   367  010D                     	;# 
   368  010E                     	;# 
   369  010F                     	;# 
   370  0185                     	;# 
   371  0187                     	;# 
   372  0188                     	;# 
   373  0189                     	;# 
   374  018C                     	;# 
   375  018D                     	;# 
   376  0000                     	;# 
   377  0001                     	;# 
   378  0002                     	;# 
   379  0003                     	;# 
   380  0004                     	;# 
   381  0005                     	;# 
   382  0006                     	;# 
   383  0007                     	;# 
   384  0008                     	;# 
   385  0009                     	;# 
   386  000A                     	;# 
   387  000B                     	;# 
   388  000C                     	;# 
   389  000D                     	;# 
   390  000E                     	;# 
   391  000E                     	;# 
   392  000F                     	;# 
   393  0010                     	;# 
   394  0011                     	;# 
   395  0012                     	;# 
   396  0013                     	;# 
   397  0014                     	;# 
   398  0015                     	;# 
   399  0015                     	;# 
   400  0016                     	;# 
   401  0017                     	;# 
   402  0018                     	;# 
   403  0019                     	;# 
   404  001A                     	;# 
   405  001B                     	;# 
   406  001B                     	;# 
   407  001C                     	;# 
   408  001D                     	;# 
   409  001E                     	;# 
   410  001F                     	;# 
   411  0081                     	;# 
   412  0085                     	;# 
   413  0086                     	;# 
   414  0087                     	;# 
   415  0088                     	;# 
   416  0089                     	;# 
   417  008C                     	;# 
   418  008D                     	;# 
   419  008E                     	;# 
   420  008F                     	;# 
   421  0090                     	;# 
   422  0091                     	;# 
   423  0092                     	;# 
   424  0093                     	;# 
   425  0093                     	;# 
   426  0093                     	;# 
   427  0094                     	;# 
   428  0095                     	;# 
   429  0096                     	;# 
   430  0097                     	;# 
   431  0098                     	;# 
   432  0099                     	;# 
   433  009A                     	;# 
   434  009B                     	;# 
   435  009C                     	;# 
   436  009D                     	;# 
   437  009E                     	;# 
   438  009F                     	;# 
   439  0105                     	;# 
   440  0107                     	;# 
   441  0108                     	;# 
   442  0109                     	;# 
   443  010C                     	;# 
   444  010C                     	;# 
   445  010D                     	;# 
   446  010E                     	;# 
   447  010F                     	;# 
   448  0185                     	;# 
   449  0187                     	;# 
   450  0188                     	;# 
   451  0189                     	;# 
   452  018C                     	;# 
   453  018D                     	;# 
   454  0014                     _SSPCON	set	20
   455  001E                     _ADRESH	set	30
   456  001F                     _ADCON0bits	set	31
   457  0005                     _PORTA	set	5
   458  0009                     _PORTE	set	9
   459  0007                     _PORTC	set	7
   460  0006                     _PORTB	set	6
   461  0008                     _PORTDbits	set	8
   462  0008                     _PORTD	set	8
   463  0013                     _SSPBUF	set	19
   464  0014                     _SSPCONbits	set	20
   465  000C                     _PIR1bits	set	12
   466  0063                     _SSPIF	set	99
   467  005E                     _PEIE	set	94
   468  005F                     _GIE	set	95
   469  0091                     _SSPCON2bits	set	145
   470  0087                     _TRISCbits	set	135
   471  0094                     _SSPSTAT	set	148
   472  0093                     _SSPADD	set	147
   473  0091                     _SSPCON2	set	145
   474  009F                     _ADCON1bits	set	159
   475  008F                     _OSCCONbits	set	143
   476  0089                     _TRISE	set	137
   477  0088                     _TRISDbits	set	136
   478  0088                     _TRISD	set	136
   479  0087                     _TRISC	set	135
   480  0086                     _TRISB	set	134
   481  0085                     _TRISA	set	133
   482  0094                     _SSPSTATbits	set	148
   483  0463                     _SSPIE	set	1123
   484  043C                     _TRISC4	set	1084
   485  043B                     _TRISC3	set	1083
   486  04A0                     _BF	set	1184
   487  0189                     _ANSELH	set	393
   488  0188                     _ANSEL	set	392
   489                           
   490                           ; #config settings
   491  0000                     
   492                           	psect	cinit
   493  000F                     start_initialization:	
   494  000F                     __initialization:	
   495                           
   496                           ; Clear objects allocated to COMMON
   497  000F  01F8               	clrf	__pbssCOMMON& (0+127)
   498  0010  01F9               	clrf	(__pbssCOMMON+1)& (0+127)
   499  0011  01FA               	clrf	(__pbssCOMMON+2)& (0+127)
   500                           
   501                           ; Clear objects allocated to BANK0
   502  0012  1383               	bcf	3,7	;select IRP bank0
   503  0013  3020               	movlw	low __pbssBANK0
   504  0014  0084               	movwf	4
   505  0015  304B               	movlw	low (__pbssBANK0+43)
   506  0016  120A  118A  252F  120A  118A  	fcall	clear_ram0
   507  001B                     end_of_initialization:	
   508                           ;End of C runtime variable initialization code
   509                           
   510  001B                     __end_of__initialization:	
   511  001B  0183               	clrf	3
   512  001C  120A  118A  281F   	ljmp	_main	;jump to C main() function
   513                           
   514                           	psect	bssCOMMON
   515  0078                     __pbssCOMMON:	
   516  0078                     _RH_byte1:	
   517  0078                     	ds	1
   518  0079                     _T_byte1:	
   519  0079                     	ds	1
   520  007A                     _adc:	
   521  007A                     	ds	1
   522                           
   523                           	psect	bssBANK0
   524  0020                     __pbssBANK0:	
   525  0020                     _sum:	
   526  0020                     	ds	2
   527  0022                     _decHR_int:	
   528  0022                     	ds	2
   529  0024                     _uniHR_int:	
   530  0024                     	ds	2
   531  0026                     _decT_int:	
   532  0026                     	ds	2
   533  0028                     _uniT_int:	
   534  0028                     	ds	2
   535  002A                     _decHR:	
   536  002A                     	ds	2
   537  002C                     _uniHR:	
   538  002C                     	ds	2
   539  002E                     _decT:	
   540  002E                     	ds	2
   541  0030                     _uniT:	
   542  0030                     	ds	2
   543  0032                     _S0:	
   544  0032                     	ds	1
   545  0033                     _RH_byte2:	
   546  0033                     	ds	1
   547  0034                     _T_byte2:	
   548  0034                     	ds	1
   549  0035                     _check:	
   550  0035                     	ds	1
   551  0036                     _z:	
   552  0036                     	ds	1
   553  0037                     _decHR_char:	
   554  0037                     	ds	5
   555  003C                     _uniHR_char:	
   556  003C                     	ds	5
   557  0041                     _decT_char:	
   558  0041                     	ds	5
   559  0046                     _uniT_char:	
   560  0046                     	ds	5
   561                           
   562                           	psect	clrtext
   563  052F                     clear_ram0:	
   564                           ;	Called with FSR containing the base address, and
   565                           ;	W with the last address+1
   566                           
   567  052F  0064               	clrwdt	;clear the watchdog before getting into this loop
   568  0530                     clrloop0:	
   569  0530  0180               	clrf	0	;clear RAM location pointed to by FSR
   570  0531  0A84               	incf	4,f	;increment pointer
   571  0532  0604               	xorwf	4,w	;XOR with final address
   572  0533  1903               	btfsc	3,2	;have we reached the end yet?
   573  0534  3400               	retlw	0	;all done for this memory range, return
   574  0535  0604               	xorwf	4,w	;XOR again to restore value
   575  0536  2D30               	goto	clrloop0	;do the next byte
   576                           
   577                           	psect	cstackCOMMON
   578  0070                     __pcstackCOMMON:	
   579  0070                     ?_SETUP:	
   580  0070                     ?_initOsc:	
   581                           ; 1 bytes @ 0x0
   582                           
   583  0070                     ?_ADCSETUP:	
   584                           ; 1 bytes @ 0x0
   585                           
   586  0070                     ?_ADC1:	
   587                           ; 1 bytes @ 0x0
   588                           
   589  0070                     ?_START_DHT11:	
   590                           ; 1 bytes @ 0x0
   591                           
   592  0070                     ?_CHECK_RESPONSE:	
   593                           ; 1 bytes @ 0x0
   594                           
   595  0070                     ?_ReadData:	
   596                           ; 1 bytes @ 0x0
   597                           
   598  0070                     ?_I2C_Slave_Init:	
   599                           ; 1 bytes @ 0x0
   600                           
   601  0070                     ?_isr:	
   602                           ; 1 bytes @ 0x0
   603                           
   604  0070                     ??_isr:	
   605                           ; 1 bytes @ 0x0
   606                           
   607  0070                     ?_main:	
   608                           ; 1 bytes @ 0x0
   609                           
   610                           
   611                           ; 1 bytes @ 0x0
   612  0070                     	ds	3
   613  0073                     ??_initOsc:	
   614  0073                     ??_ADCSETUP:	
   615                           ; 1 bytes @ 0x3
   616                           
   617  0073                     ??_ADC1:	
   618                           ; 1 bytes @ 0x3
   619                           
   620  0073                     ??_START_DHT11:	
   621                           ; 1 bytes @ 0x3
   622                           
   623  0073                     ??_CHECK_RESPONSE:	
   624                           ; 1 bytes @ 0x3
   625                           
   626  0073                     ??_ReadData:	
   627                           ; 1 bytes @ 0x3
   628                           
   629  0073                     ?_strcat:	
   630                           ; 1 bytes @ 0x3
   631                           
   632  0073                     ??_I2C_Slave_Init:	
   633                           ; 1 bytes @ 0x3
   634                           
   635  0073                     ?___awdiv:	
   636                           ; 1 bytes @ 0x3
   637                           
   638  0073                     ?___awmod:	
   639                           ; 2 bytes @ 0x3
   640                           
   641  0073                     ?___lwdiv:	
   642                           ; 2 bytes @ 0x3
   643                           
   644  0073                     ?___lwmod:	
   645                           ; 2 bytes @ 0x3
   646                           
   647  0073                     I2C_Slave_Init@address:	
   648                           ; 2 bytes @ 0x3
   649                           
   650  0073                     strcat@from:	
   651                           ; 1 bytes @ 0x3
   652                           
   653  0073                     ___awdiv@divisor:	
   654                           ; 1 bytes @ 0x3
   655                           
   656  0073                     ___awmod@divisor:	
   657                           ; 2 bytes @ 0x3
   658                           
   659  0073                     ___lwdiv@divisor:	
   660                           ; 2 bytes @ 0x3
   661                           
   662  0073                     ___lwmod@divisor:	
   663                           ; 2 bytes @ 0x3
   664                           
   665                           
   666                           ; 2 bytes @ 0x3
   667  0073                     	ds	1
   668  0074                     ??_SETUP:	
   669  0074                     ??_strcat:	
   670                           ; 1 bytes @ 0x4
   671                           
   672                           
   673                           ; 1 bytes @ 0x4
   674  0074                     	ds	1
   675  0075                     ReadData@i:	
   676  0075                     initOsc@frec:	
   677                           ; 1 bytes @ 0x5
   678                           
   679  0075                     strcat@to:	
   680                           ; 1 bytes @ 0x5
   681                           
   682  0075                     ___awdiv@dividend:	
   683                           ; 1 bytes @ 0x5
   684                           
   685  0075                     ___awmod@dividend:	
   686                           ; 2 bytes @ 0x5
   687                           
   688  0075                     ___lwdiv@dividend:	
   689                           ; 2 bytes @ 0x5
   690                           
   691  0075                     ___lwmod@dividend:	
   692                           ; 2 bytes @ 0x5
   693                           
   694                           
   695                           ; 2 bytes @ 0x5
   696  0075                     	ds	1
   697  0076                     ReadData@j:	
   698  0076                     strcat@cp:	
   699                           ; 1 bytes @ 0x6
   700                           
   701                           
   702                           ; 1 bytes @ 0x6
   703  0076                     	ds	1
   704  0077                     ??___awdiv:	
   705  0077                     ??___awmod:	
   706                           ; 1 bytes @ 0x7
   707                           
   708  0077                     ??___lwdiv:	
   709                           ; 1 bytes @ 0x7
   710                           
   711  0077                     ??___lwmod:	
   712                           ; 1 bytes @ 0x7
   713                           
   714                           
   715                           ; 1 bytes @ 0x7
   716  0077                     	ds	1
   717                           
   718                           	psect	cstackBANK0
   719  004B                     __pcstackBANK0:	
   720  004B                     ___awdiv@counter:	
   721  004B                     ___awmod@counter:	
   722                           ; 1 bytes @ 0x0
   723                           
   724  004B                     ___lwdiv@counter:	
   725                           ; 1 bytes @ 0x0
   726                           
   727  004B                     ___lwmod@counter:	
   728                           ; 1 bytes @ 0x0
   729                           
   730                           
   731                           ; 1 bytes @ 0x0
   732  004B                     	ds	1
   733  004C                     ___awdiv@sign:	
   734  004C                     ___awmod@sign:	
   735                           ; 1 bytes @ 0x1
   736                           
   737  004C                     ___lwdiv@quotient:	
   738                           ; 1 bytes @ 0x1
   739                           
   740                           
   741                           ; 2 bytes @ 0x1
   742  004C                     	ds	1
   743  004D                     ___awdiv@quotient:	
   744                           
   745                           ; 2 bytes @ 0x2
   746  004D                     	ds	1
   747  004E                     ?_utoa:	
   748  004E                     utoa@val:	
   749                           ; 1 bytes @ 0x3
   750                           
   751                           
   752                           ; 2 bytes @ 0x3
   753  004E                     	ds	2
   754  0050                     utoa@base:	
   755                           
   756                           ; 2 bytes @ 0x5
   757  0050                     	ds	2
   758  0052                     ??_utoa:	
   759                           
   760                           ; 1 bytes @ 0x7
   761  0052                     	ds	1
   762  0053                     utoa@v:	
   763                           
   764                           ; 2 bytes @ 0x8
   765  0053                     	ds	2
   766  0055                     utoa@c:	
   767                           
   768                           ; 1 bytes @ 0xA
   769  0055                     	ds	1
   770  0056                     utoa@buf:	
   771                           
   772                           ; 1 bytes @ 0xB
   773  0056                     	ds	1
   774  0057                     ?_itoa:	
   775  0057                     itoa@val:	
   776                           ; 1 bytes @ 0xC
   777                           
   778                           
   779                           ; 2 bytes @ 0xC
   780  0057                     	ds	2
   781  0059                     itoa@base:	
   782                           
   783                           ; 2 bytes @ 0xE
   784  0059                     	ds	2
   785  005B                     ??_itoa:	
   786                           
   787                           ; 1 bytes @ 0x10
   788  005B                     	ds	2
   789  005D                     itoa@buf:	
   790                           
   791                           ; 1 bytes @ 0x12
   792  005D                     	ds	1
   793  005E                     ??_main:	
   794                           
   795                           ; 1 bytes @ 0x13
   796  005E                     	ds	8
   797                           
   798                           	psect	maintext
   799  001F                     __pmaintext:	
   800 ;;
   801 ;;Main: autosize = 0, tempsize = 8, incstack = 0, save=0
   802 ;;
   803 ;; *************** function _main *****************
   804 ;; Defined at:
   805 ;;		line 136 in file "Luz_y_Temperatura.c"
   806 ;; Parameters:    Size  Location     Type
   807 ;;		None
   808 ;; Auto vars:     Size  Location     Type
   809 ;;		None
   810 ;; Return value:  Size  Location     Type
   811 ;;                  1    wreg      void 
   812 ;; Registers used:
   813 ;;		wreg, fsr0l, fsr0h, status,2, status,0, pclath, cstack
   814 ;; Tracked objects:
   815 ;;		On entry : B00/0
   816 ;;		On exit  : 0/0
   817 ;;		Unchanged: 0/0
   818 ;; Data sizes:     COMMON   BANK0   BANK1   BANK3   BANK2
   819 ;;      Params:         0       0       0       0       0
   820 ;;      Locals:         0       0       0       0       0
   821 ;;      Temps:          0       8       0       0       0
   822 ;;      Totals:         0       8       0       0       0
   823 ;;Total ram usage:        8 bytes
   824 ;; Hardware stack levels required when called:    4
   825 ;; This function calls:
   826 ;;		_ADC1
   827 ;;		_ADCSETUP
   828 ;;		_CHECK_RESPONSE
   829 ;;		_ReadData
   830 ;;		_SETUP
   831 ;;		_START_DHT11
   832 ;;		___awdiv
   833 ;;		___awmod
   834 ;;		_initOsc
   835 ;;		_itoa
   836 ;;		_strcat
   837 ;; This function is called by:
   838 ;;		Startup code after reset
   839 ;; This function uses a non-reentrant model
   840 ;;
   841                           
   842                           
   843                           ;psect for function _main
   844  001F                     _main:	
   845  001F                     l1874:	
   846                           ;incstack = 0
   847                           ; Regs used in _main: [wreg-fsr0h+status,2+status,0+pclath+cstack]
   848                           
   849                           
   850                           ;Luz_y_Temperatura.c: 137:     SETUP();
   851  001F  120A  118A  24D1  120A  118A  	fcall	_SETUP
   852  0024                     l1876:	
   853                           
   854                           ;Luz_y_Temperatura.c: 138:     initOsc(7);
   855  0024  3007               	movlw	7
   856  0025  120A  118A  22C1  120A  118A  	fcall	_initOsc
   857  002A                     l1878:	
   858                           
   859                           ;Luz_y_Temperatura.c: 139:     ADCSETUP();
   860  002A  120A  118A  2522  120A  118A  	fcall	_ADCSETUP
   861  002F                     l1880:	
   862                           
   863                           ;Luz_y_Temperatura.c: 141:         ADC1();
   864  002F  120A  118A  248E  120A  118A  	fcall	_ADC1
   865  0034                     l1882:	
   866                           
   867                           ;Luz_y_Temperatura.c: 142:         if(adc>=17){
   868  0034  3011               	movlw	17
   869  0035  027A               	subwf	_adc,w
   870  0036  1C03               	skipc
   871  0037  2839               	goto	u1571
   872  0038  283A               	goto	u1570
   873  0039                     u1571:	
   874  0039  283D               	goto	l1886
   875  003A                     u1570:	
   876  003A                     l1884:	
   877                           
   878                           ;Luz_y_Temperatura.c: 143:             PORTDbits.RD1=0;
   879  003A  1283               	bcf	3,5	;RP0=0, select bank0
   880  003B  1303               	bcf	3,6	;RP1=0, select bank0
   881  003C  1088               	bcf	8,1	;volatile
   882  003D                     l1886:	
   883                           
   884                           ;Luz_y_Temperatura.c: 145:         if(adc<=8){
   885  003D  3009               	movlw	9
   886  003E  027A               	subwf	_adc,w
   887  003F  1803               	skipnc
   888  0040  2842               	goto	u1581
   889  0041  2843               	goto	u1580
   890  0042                     u1581:	
   891  0042  2846               	goto	l1890
   892  0043                     u1580:	
   893  0043                     l1888:	
   894                           
   895                           ;Luz_y_Temperatura.c: 146:             PORTDbits.RD1=1;
   896  0043  1283               	bcf	3,5	;RP0=0, select bank0
   897  0044  1303               	bcf	3,6	;RP1=0, select bank0
   898  0045  1488               	bsf	8,1	;volatile
   899  0046                     l1890:	
   900                           
   901                           ;Luz_y_Temperatura.c: 149:         START_DHT11();
   902  0046  120A  118A  24EE  120A  118A  	fcall	_START_DHT11
   903                           
   904                           ;Luz_y_Temperatura.c: 150:         CHECK_RESPONSE();
   905  004B  120A  118A  24B2  120A  118A  	fcall	_CHECK_RESPONSE
   906  0050                     l1892:	
   907                           
   908                           ;Luz_y_Temperatura.c: 152:         if(check == 1){
   909  0050  1283               	bcf	3,5	;RP0=0, select bank0
   910  0051  1303               	bcf	3,6	;RP1=0, select bank0
   911  0052  0335               	decf	_check,w
   912  0053  1D03               	btfss	3,2
   913  0054  2856               	goto	u1591
   914  0055  2857               	goto	u1590
   915  0056                     u1591:	
   916  0056  282F               	goto	l1880
   917  0057                     u1590:	
   918  0057                     l1894:	
   919                           
   920                           ;Luz_y_Temperatura.c: 154:             RH_byte1 = ReadData();
   921  0057  120A  118A  23C1  120A  118A  	fcall	_ReadData
   922  005C  1283               	bcf	3,5	;RP0=0, select bank0
   923  005D  1303               	bcf	3,6	;RP1=0, select bank0
   924  005E  00DE               	movwf	??_main
   925  005F  085E               	movf	??_main,w
   926  0060  00F8               	movwf	_RH_byte1
   927                           
   928                           ;Luz_y_Temperatura.c: 155:             RH_byte2 = ReadData();
   929  0061  120A  118A  23C1  120A  118A  	fcall	_ReadData
   930  0066  1283               	bcf	3,5	;RP0=0, select bank0
   931  0067  1303               	bcf	3,6	;RP1=0, select bank0
   932  0068  00DE               	movwf	??_main
   933  0069  085E               	movf	??_main,w
   934  006A  00B3               	movwf	_RH_byte2
   935                           
   936                           ;Luz_y_Temperatura.c: 156:             T_byte1 = ReadData();
   937  006B  120A  118A  23C1  120A  118A  	fcall	_ReadData
   938  0070  1283               	bcf	3,5	;RP0=0, select bank0
   939  0071  1303               	bcf	3,6	;RP1=0, select bank0
   940  0072  00DE               	movwf	??_main
   941  0073  085E               	movf	??_main,w
   942  0074  00F9               	movwf	_T_byte1
   943                           
   944                           ;Luz_y_Temperatura.c: 157:             T_byte2 = ReadData();
   945  0075  120A  118A  23C1  120A  118A  	fcall	_ReadData
   946  007A  1283               	bcf	3,5	;RP0=0, select bank0
   947  007B  1303               	bcf	3,6	;RP1=0, select bank0
   948  007C  00DE               	movwf	??_main
   949  007D  085E               	movf	??_main,w
   950  007E  00B4               	movwf	_T_byte2
   951                           
   952                           ;Luz_y_Temperatura.c: 158:             sum = ReadData();
   953  007F  120A  118A  23C1  120A  118A  	fcall	_ReadData
   954  0084  1283               	bcf	3,5	;RP0=0, select bank0
   955  0085  1303               	bcf	3,6	;RP1=0, select bank0
   956  0086  00DE               	movwf	??_main
   957  0087  01DF               	clrf	??_main+1
   958  0088  085E               	movf	??_main,w
   959  0089  00A0               	movwf	_sum
   960  008A  085F               	movf	??_main+1,w
   961  008B  00A1               	movwf	_sum+1
   962  008C                     l1896:	
   963                           
   964                           ;Luz_y_Temperatura.c: 160:             if(sum == ((RH_byte1+RH_byte2+T_byte1+T_byte2) & 
      +                          0xFF)){
   965  008C  0878               	movf	_RH_byte1,w
   966  008D  0733               	addwf	_RH_byte2,w
   967  008E  00DE               	movwf	??_main
   968  008F  01DF               	clrf	??_main+1
   969  0090  0DDF               	rlf	??_main+1,f
   970  0091  0879               	movf	_T_byte1,w
   971  0092  075E               	addwf	??_main,w
   972  0093  00E0               	movwf	??_main+2
   973  0094  3000               	movlw	0
   974  0095  1803               	skipnc
   975  0096  3001               	movlw	1
   976  0097  075F               	addwf	??_main+1,w
   977  0098  00E1               	movwf	??_main+3
   978  0099  0834               	movf	_T_byte2,w
   979  009A  0760               	addwf	??_main+2,w
   980  009B  00E2               	movwf	??_main+4
   981  009C  3000               	movlw	0
   982  009D  1803               	skipnc
   983  009E  3001               	movlw	1
   984  009F  0761               	addwf	??_main+3,w
   985  00A0  00E3               	movwf	??_main+5
   986  00A1  30FF               	movlw	255
   987  00A2  0562               	andwf	??_main+4,w
   988  00A3  00E4               	movwf	??_main+6
   989  00A4  3000               	movlw	0
   990  00A5  0563               	andwf	??_main+5,w
   991  00A6  00E5               	movwf	??_main+7
   992  00A7  0821               	movf	_sum+1,w
   993  00A8  0665               	xorwf	??_main+7,w
   994  00A9  1D03               	skipz
   995  00AA  28AD               	goto	u1605
   996  00AB  0820               	movf	_sum,w
   997  00AC  0664               	xorwf	??_main+6,w
   998  00AD                     u1605:	
   999  00AD  1D03               	skipz
  1000  00AE  28B0               	goto	u1601
  1001  00AF  28B1               	goto	u1600
  1002  00B0                     u1601:	
  1003  00B0  282F               	goto	l1880
  1004  00B1                     u1600:	
  1005  00B1                     l1898:	
  1006                           
  1007                           ;Luz_y_Temperatura.c: 161:               decHR = RH_byte1/10;
  1008  00B1  300A               	movlw	10
  1009  00B2  00F3               	movwf	___awdiv@divisor
  1010  00B3  3000               	movlw	0
  1011  00B4  00F4               	movwf	___awdiv@divisor+1
  1012  00B5  0878               	movf	_RH_byte1,w
  1013  00B6  00DE               	movwf	??_main
  1014  00B7  01DF               	clrf	??_main+1
  1015  00B8  085E               	movf	??_main,w
  1016  00B9  00F5               	movwf	___awdiv@dividend
  1017  00BA  085F               	movf	??_main+1,w
  1018  00BB  00F6               	movwf	___awdiv@dividend+1
  1019  00BC  120A  118A  2258  120A  118A  	fcall	___awdiv
  1020  00C1  0874               	movf	?___awdiv+1,w
  1021  00C2  1283               	bcf	3,5	;RP0=0, select bank0
  1022  00C3  1303               	bcf	3,6	;RP1=0, select bank0
  1023  00C4  00AB               	movwf	_decHR+1
  1024  00C5  0873               	movf	?___awdiv,w
  1025  00C6  00AA               	movwf	_decHR
  1026  00C7                     l1900:	
  1027                           
  1028                           ;Luz_y_Temperatura.c: 162:               itoa(decHR_char,decHR,10);
  1029  00C7  082B               	movf	_decHR+1,w
  1030  00C8  00D8               	movwf	itoa@val+1
  1031  00C9  082A               	movf	_decHR,w
  1032  00CA  00D7               	movwf	itoa@val
  1033  00CB  300A               	movlw	10
  1034  00CC  00D9               	movwf	itoa@base
  1035  00CD  3000               	movlw	0
  1036  00CE  00DA               	movwf	itoa@base+1
  1037  00CF  3037               	movlw	(low (_decHR_char| 0))& (0+255)
  1038  00D0  120A  118A  2468  120A  118A  	fcall	_itoa
  1039  00D5                     l1902:	
  1040                           
  1041                           ;Luz_y_Temperatura.c: 163:               uniHR = RH_byte1%10;
  1042  00D5  300A               	movlw	10
  1043  00D6  00F3               	movwf	___awmod@divisor
  1044  00D7  3000               	movlw	0
  1045  00D8  00F4               	movwf	___awmod@divisor+1
  1046  00D9  0878               	movf	_RH_byte1,w
  1047  00DA  1283               	bcf	3,5	;RP0=0, select bank0
  1048  00DB  1303               	bcf	3,6	;RP1=0, select bank0
  1049  00DC  00DE               	movwf	??_main
  1050  00DD  01DF               	clrf	??_main+1
  1051  00DE  085E               	movf	??_main,w
  1052  00DF  00F5               	movwf	___awmod@dividend
  1053  00E0  085F               	movf	??_main+1,w
  1054  00E1  00F6               	movwf	___awmod@dividend+1
  1055  00E2  120A  118A  2320  120A  118A  	fcall	___awmod
  1056  00E7  0874               	movf	?___awmod+1,w
  1057  00E8  1283               	bcf	3,5	;RP0=0, select bank0
  1058  00E9  1303               	bcf	3,6	;RP1=0, select bank0
  1059  00EA  00AD               	movwf	_uniHR+1
  1060  00EB  0873               	movf	?___awmod,w
  1061  00EC  00AC               	movwf	_uniHR
  1062                           
  1063                           ;Luz_y_Temperatura.c: 164:               itoa(uniHR_char,uniHR,10);
  1064  00ED  082D               	movf	_uniHR+1,w
  1065  00EE  00D8               	movwf	itoa@val+1
  1066  00EF  082C               	movf	_uniHR,w
  1067  00F0  00D7               	movwf	itoa@val
  1068  00F1  300A               	movlw	10
  1069  00F2  00D9               	movwf	itoa@base
  1070  00F3  3000               	movlw	0
  1071  00F4  00DA               	movwf	itoa@base+1
  1072  00F5  303C               	movlw	(low (_uniHR_char| 0))& (0+255)
  1073  00F6  120A  118A  2468  120A  118A  	fcall	_itoa
  1074  00FB                     l1904:	
  1075                           
  1076                           ;Luz_y_Temperatura.c: 165:               decT = T_byte1/10;
  1077  00FB  300A               	movlw	10
  1078  00FC  00F3               	movwf	___awdiv@divisor
  1079  00FD  3000               	movlw	0
  1080  00FE  00F4               	movwf	___awdiv@divisor+1
  1081  00FF  0879               	movf	_T_byte1,w
  1082  0100  1283               	bcf	3,5	;RP0=0, select bank0
  1083  0101  1303               	bcf	3,6	;RP1=0, select bank0
  1084  0102  00DE               	movwf	??_main
  1085  0103  01DF               	clrf	??_main+1
  1086  0104  085E               	movf	??_main,w
  1087  0105  00F5               	movwf	___awdiv@dividend
  1088  0106  085F               	movf	??_main+1,w
  1089  0107  00F6               	movwf	___awdiv@dividend+1
  1090  0108  120A  118A  2258  120A  118A  	fcall	___awdiv
  1091  010D  0874               	movf	?___awdiv+1,w
  1092  010E  1283               	bcf	3,5	;RP0=0, select bank0
  1093  010F  1303               	bcf	3,6	;RP1=0, select bank0
  1094  0110  00AF               	movwf	_decT+1
  1095  0111  0873               	movf	?___awdiv,w
  1096  0112  00AE               	movwf	_decT
  1097  0113                     l1906:	
  1098                           
  1099                           ;Luz_y_Temperatura.c: 166:               itoa(decT_char,decT,10);
  1100  0113  082F               	movf	_decT+1,w
  1101  0114  00D8               	movwf	itoa@val+1
  1102  0115  082E               	movf	_decT,w
  1103  0116  00D7               	movwf	itoa@val
  1104  0117  300A               	movlw	10
  1105  0118  00D9               	movwf	itoa@base
  1106  0119  3000               	movlw	0
  1107  011A  00DA               	movwf	itoa@base+1
  1108  011B  3041               	movlw	(low (_decT_char| 0))& (0+255)
  1109  011C  120A  118A  2468  120A  118A  	fcall	_itoa
  1110                           
  1111                           ;Luz_y_Temperatura.c: 167:               uniT = T_byte1%10;
  1112  0121  300A               	movlw	10
  1113  0122  00F3               	movwf	___awmod@divisor
  1114  0123  3000               	movlw	0
  1115  0124  00F4               	movwf	___awmod@divisor+1
  1116  0125  0879               	movf	_T_byte1,w
  1117  0126  1283               	bcf	3,5	;RP0=0, select bank0
  1118  0127  1303               	bcf	3,6	;RP1=0, select bank0
  1119  0128  00DE               	movwf	??_main
  1120  0129  01DF               	clrf	??_main+1
  1121  012A  085E               	movf	??_main,w
  1122  012B  00F5               	movwf	___awmod@dividend
  1123  012C  085F               	movf	??_main+1,w
  1124  012D  00F6               	movwf	___awmod@dividend+1
  1125  012E  120A  118A  2320  120A  118A  	fcall	___awmod
  1126  0133  0874               	movf	?___awmod+1,w
  1127  0134  1283               	bcf	3,5	;RP0=0, select bank0
  1128  0135  1303               	bcf	3,6	;RP1=0, select bank0
  1129  0136  00B1               	movwf	_uniT+1
  1130  0137  0873               	movf	?___awmod,w
  1131  0138  00B0               	movwf	_uniT
  1132  0139                     l1908:	
  1133                           
  1134                           ;Luz_y_Temperatura.c: 168:               itoa(uniT_char,uniT ,10);
  1135  0139  0831               	movf	_uniT+1,w
  1136  013A  00D8               	movwf	itoa@val+1
  1137  013B  0830               	movf	_uniT,w
  1138  013C  00D7               	movwf	itoa@val
  1139  013D  300A               	movlw	10
  1140  013E  00D9               	movwf	itoa@base
  1141  013F  3000               	movlw	0
  1142  0140  00DA               	movwf	itoa@base+1
  1143  0141  3046               	movlw	(low (_uniT_char| 0))& (0+255)
  1144  0142  120A  118A  2468  120A  118A  	fcall	_itoa
  1145  0147                     l1910:	
  1146                           
  1147                           ;Luz_y_Temperatura.c: 169:               strcat(decHR_char,uniHR_char);
  1148  0147  303C               	movlw	(low (_uniHR_char| 0))& (0+255)
  1149  0148  1283               	bcf	3,5	;RP0=0, select bank0
  1150  0149  1303               	bcf	3,6	;RP1=0, select bank0
  1151  014A  00DE               	movwf	??_main
  1152  014B  085E               	movf	??_main,w
  1153  014C  00F3               	movwf	strcat@from
  1154  014D  3037               	movlw	(low (_decHR_char| 0))& (0+255)
  1155  014E  120A  118A  243F  120A  118A  	fcall	_strcat
  1156  0153                     l1912:	
  1157                           
  1158                           ;Luz_y_Temperatura.c: 170:               strcat(decT_char,uniT_char);
  1159  0153  3046               	movlw	(low (_uniT_char| 0))& (0+255)
  1160  0154  1283               	bcf	3,5	;RP0=0, select bank0
  1161  0155  1303               	bcf	3,6	;RP1=0, select bank0
  1162  0156  00DE               	movwf	??_main
  1163  0157  085E               	movf	??_main,w
  1164  0158  00F3               	movwf	strcat@from
  1165  0159  3041               	movlw	(low (_decT_char| 0))& (0+255)
  1166  015A  120A  118A  243F  120A  118A  	fcall	_strcat
  1167  015F  282F               	goto	l1880
  1168  0160  120A  118A  280C   	ljmp	start
  1169  0163                     __end_of_main:	
  1170                           
  1171                           	psect	text1
  1172  043F                     __ptext1:	
  1173 ;; *************** function _strcat *****************
  1174 ;; Defined at:
  1175 ;;		line 8 in file "C:\Program Files (x86)\Microchip\xc8\v2.10\pic\sources\c90\common\strcat.c"
  1176 ;; Parameters:    Size  Location     Type
  1177 ;;  to              1    wreg     PTR unsigned char 
  1178 ;;		 -> decT_char(5), decHR_char(5), 
  1179 ;;  from            1    3[COMMON] PTR const unsigned char 
  1180 ;;		 -> uniT_char(5), uniHR_char(5), 
  1181 ;; Auto vars:     Size  Location     Type
  1182 ;;  to              1    5[COMMON] PTR unsigned char 
  1183 ;;		 -> decT_char(5), decHR_char(5), 
  1184 ;;  cp              1    6[COMMON] PTR unsigned char 
  1185 ;;		 -> decT_char(5), decHR_char(5), 
  1186 ;; Return value:  Size  Location     Type
  1187 ;;                  1    wreg      PTR unsigned char 
  1188 ;; Registers used:
  1189 ;;		wreg, fsr0l, fsr0h, status,2, status,0
  1190 ;; Tracked objects:
  1191 ;;		On entry : 0/0
  1192 ;;		On exit  : 0/0
  1193 ;;		Unchanged: 0/0
  1194 ;; Data sizes:     COMMON   BANK0   BANK1   BANK3   BANK2
  1195 ;;      Params:         1       0       0       0       0
  1196 ;;      Locals:         2       0       0       0       0
  1197 ;;      Temps:          1       0       0       0       0
  1198 ;;      Totals:         4       0       0       0       0
  1199 ;;Total ram usage:        4 bytes
  1200 ;; Hardware stack levels used:    1
  1201 ;; Hardware stack levels required when called:    1
  1202 ;; This function calls:
  1203 ;;		Nothing
  1204 ;; This function is called by:
  1205 ;;		_main
  1206 ;; This function uses a non-reentrant model
  1207 ;;
  1208                           
  1209                           
  1210                           ;psect for function _strcat
  1211  043F                     _strcat:	
  1212                           
  1213                           ;incstack = 0
  1214                           ; Regs used in _strcat: [wreg-fsr0h+status,2+status,0]
  1215                           ;strcat@to stored from wreg
  1216  043F  00F5               	movwf	strcat@to
  1217  0440                     l1542:	
  1218  0440  0875               	movf	strcat@to,w
  1219  0441  00F4               	movwf	??_strcat
  1220  0442  0874               	movf	??_strcat,w
  1221  0443  00F6               	movwf	strcat@cp
  1222  0444  2C49               	goto	l1546
  1223  0445                     l1544:	
  1224  0445  3001               	movlw	1
  1225  0446  00F4               	movwf	??_strcat
  1226  0447  0874               	movf	??_strcat,w
  1227  0448  07F6               	addwf	strcat@cp,f
  1228  0449                     l1546:	
  1229  0449  0876               	movf	strcat@cp,w
  1230  044A  0084               	movwf	4
  1231  044B  1383               	bcf	3,7	;select IRP bank0
  1232  044C  0800               	movf	0,w
  1233  044D  1D03               	btfss	3,2
  1234  044E  2C50               	goto	u941
  1235  044F  2C51               	goto	u940
  1236  0450                     u941:	
  1237  0450  2C45               	goto	l1544
  1238  0451                     u940:	
  1239  0451  2C5A               	goto	l1550
  1240  0452                     l1548:	
  1241  0452  3001               	movlw	1
  1242  0453  00F4               	movwf	??_strcat
  1243  0454  0874               	movf	??_strcat,w
  1244  0455  07F6               	addwf	strcat@cp,f
  1245  0456  3001               	movlw	1
  1246  0457  00F4               	movwf	??_strcat
  1247  0458  0874               	movf	??_strcat,w
  1248  0459  07F3               	addwf	strcat@from,f
  1249  045A                     l1550:	
  1250  045A  0873               	movf	strcat@from,w
  1251  045B  0084               	movwf	4
  1252  045C  0800               	movf	0,w
  1253  045D  00F4               	movwf	??_strcat
  1254  045E  0876               	movf	strcat@cp,w
  1255  045F  0084               	movwf	4
  1256  0460  0874               	movf	??_strcat,w
  1257  0461  0080               	movwf	0
  1258  0462  0800               	movf	0,w
  1259  0463  1D03               	btfss	3,2
  1260  0464  2C66               	goto	u951
  1261  0465  2C67               	goto	u950
  1262  0466                     u951:	
  1263  0466  2C52               	goto	l1548
  1264  0467                     u950:	
  1265  0467                     l804:	
  1266  0467  0008               	return
  1267  0468                     __end_of_strcat:	
  1268                           
  1269                           	psect	text2
  1270  0468                     __ptext2:	
  1271 ;; *************** function _itoa *****************
  1272 ;; Defined at:
  1273 ;;		line 4 in file "C:\Program Files (x86)\Microchip\xc8\v2.10\pic\sources\c90\common\itoa.c"
  1274 ;; Parameters:    Size  Location     Type
  1275 ;;  buf             1    wreg     PTR unsigned char 
  1276 ;;		 -> uniT_char(5), decT_char(5), uniHR_char(5), decHR_char(5), 
  1277 ;;  val             2   12[BANK0 ] int 
  1278 ;;  base            2   14[BANK0 ] int 
  1279 ;; Auto vars:     Size  Location     Type
  1280 ;;  buf             1   18[BANK0 ] PTR unsigned char 
  1281 ;;		 -> uniT_char(5), decT_char(5), uniHR_char(5), decHR_char(5), 
  1282 ;;  cp              1    0        PTR unsigned char 
  1283 ;;		 -> uniT_char(5), decT_char(5), uniHR_char(5), decHR_char(5), 
  1284 ;; Return value:  Size  Location     Type
  1285 ;;                  1    wreg      PTR unsigned char 
  1286 ;; Registers used:
  1287 ;;		wreg, fsr0l, fsr0h, status,2, status,0, pclath, cstack
  1288 ;; Tracked objects:
  1289 ;;		On entry : 0/0
  1290 ;;		On exit  : 0/0
  1291 ;;		Unchanged: 0/0
  1292 ;; Data sizes:     COMMON   BANK0   BANK1   BANK3   BANK2
  1293 ;;      Params:         0       4       0       0       0
  1294 ;;      Locals:         0       2       0       0       0
  1295 ;;      Temps:          0       1       0       0       0
  1296 ;;      Totals:         0       7       0       0       0
  1297 ;;Total ram usage:        7 bytes
  1298 ;; Hardware stack levels used:    1
  1299 ;; Hardware stack levels required when called:    3
  1300 ;; This function calls:
  1301 ;;		_utoa
  1302 ;; This function is called by:
  1303 ;;		_main
  1304 ;; This function uses a non-reentrant model
  1305 ;;
  1306                           
  1307                           
  1308                           ;psect for function _itoa
  1309  0468                     _itoa:	
  1310                           
  1311                           ;incstack = 0
  1312                           ; Regs used in _itoa: [wreg-fsr0h+status,2+status,0+pclath+cstack]
  1313                           ;itoa@buf stored from wreg
  1314  0468  1283               	bcf	3,5	;RP0=0, select bank0
  1315  0469  1303               	bcf	3,6	;RP1=0, select bank0
  1316  046A  00DD               	movwf	itoa@buf
  1317  046B                     l1822:	
  1318  046B                     l1824:	
  1319  046B  1FD8               	btfss	itoa@val+1,7
  1320  046C  2C6E               	goto	u1471
  1321  046D  2C6F               	goto	u1470
  1322  046E                     u1471:	
  1323  046E  2C7F               	goto	l1832
  1324  046F                     u1470:	
  1325  046F                     l1826:	
  1326  046F  302D               	movlw	45
  1327  0470  00DB               	movwf	??_itoa
  1328  0471  085D               	movf	itoa@buf,w
  1329  0472  0084               	movwf	4
  1330  0473  085B               	movf	??_itoa,w
  1331  0474  1383               	bcf	3,7	;select IRP bank0
  1332  0475  0080               	movwf	0
  1333  0476                     l1828:	
  1334  0476  3001               	movlw	1
  1335  0477  00DB               	movwf	??_itoa
  1336  0478  085B               	movf	??_itoa,w
  1337  0479  07DD               	addwf	itoa@buf,f
  1338  047A                     l1830:	
  1339  047A  09D7               	comf	itoa@val,f
  1340  047B  09D8               	comf	itoa@val+1,f
  1341  047C  0AD7               	incf	itoa@val,f
  1342  047D  1903               	skipnz
  1343  047E  0AD8               	incf	itoa@val+1,f
  1344  047F                     l1832:	
  1345  047F  0858               	movf	itoa@val+1,w
  1346  0480  00CF               	movwf	utoa@val+1
  1347  0481  0857               	movf	itoa@val,w
  1348  0482  00CE               	movwf	utoa@val
  1349  0483  085A               	movf	itoa@base+1,w
  1350  0484  00D1               	movwf	utoa@base+1
  1351  0485  0859               	movf	itoa@base,w
  1352  0486  00D0               	movwf	utoa@base
  1353  0487  085D               	movf	itoa@buf,w
  1354  0488  120A  118A  21E6  120A  118A  	fcall	_utoa
  1355  048D                     l787:	
  1356  048D  0008               	return
  1357  048E                     __end_of_itoa:	
  1358                           
  1359                           	psect	text3
  1360  01E6                     __ptext3:	
  1361 ;; *************** function _utoa *****************
  1362 ;; Defined at:
  1363 ;;		line 17 in file "C:\Program Files (x86)\Microchip\xc8\v2.10\pic\sources\c90\common\itoa.c"
  1364 ;; Parameters:    Size  Location     Type
  1365 ;;  buf             1    wreg     PTR unsigned char 
  1366 ;;		 -> uniT_char(5), decT_char(5), uniHR_char(5), decHR_char(5), 
  1367 ;;  val             2    3[BANK0 ] unsigned int 
  1368 ;;  base            2    5[BANK0 ] int 
  1369 ;; Auto vars:     Size  Location     Type
  1370 ;;  buf             1   11[BANK0 ] PTR unsigned char 
  1371 ;;		 -> uniT_char(5), decT_char(5), uniHR_char(5), decHR_char(5), 
  1372 ;;  v               2    8[BANK0 ] unsigned int 
  1373 ;;  c               1   10[BANK0 ] unsigned char 
  1374 ;; Return value:  Size  Location     Type
  1375 ;;                  1    wreg      PTR unsigned char 
  1376 ;; Registers used:
  1377 ;;		wreg, fsr0l, fsr0h, status,2, status,0, pclath, cstack
  1378 ;; Tracked objects:
  1379 ;;		On entry : 0/0
  1380 ;;		On exit  : 0/0
  1381 ;;		Unchanged: 0/0
  1382 ;; Data sizes:     COMMON   BANK0   BANK1   BANK3   BANK2
  1383 ;;      Params:         0       4       0       0       0
  1384 ;;      Locals:         0       4       0       0       0
  1385 ;;      Temps:          0       1       0       0       0
  1386 ;;      Totals:         0       9       0       0       0
  1387 ;;Total ram usage:        9 bytes
  1388 ;; Hardware stack levels used:    1
  1389 ;; Hardware stack levels required when called:    2
  1390 ;; This function calls:
  1391 ;;		___lwdiv
  1392 ;;		___lwmod
  1393 ;; This function is called by:
  1394 ;;		_itoa
  1395 ;; This function uses a non-reentrant model
  1396 ;;
  1397                           
  1398                           
  1399                           ;psect for function _utoa
  1400  01E6                     _utoa:	
  1401                           
  1402                           ;incstack = 0
  1403                           ; Regs used in _utoa: [wreg-fsr0h+status,2+status,0+pclath+cstack]
  1404                           ;utoa@buf stored from wreg
  1405  01E6  1283               	bcf	3,5	;RP0=0, select bank0
  1406  01E7  1303               	bcf	3,6	;RP1=0, select bank0
  1407  01E8  00D6               	movwf	utoa@buf
  1408  01E9                     l1792:	
  1409  01E9  084F               	movf	utoa@val+1,w
  1410  01EA  00D4               	movwf	utoa@v+1
  1411  01EB  084E               	movf	utoa@val,w
  1412  01EC  00D3               	movwf	utoa@v
  1413  01ED                     l1794:	
  1414  01ED  0851               	movf	utoa@base+1,w
  1415  01EE  00F4               	movwf	___lwdiv@divisor+1
  1416  01EF  0850               	movf	utoa@base,w
  1417  01F0  00F3               	movwf	___lwdiv@divisor
  1418  01F1  0854               	movf	utoa@v+1,w
  1419  01F2  00F6               	movwf	___lwdiv@dividend+1
  1420  01F3  0853               	movf	utoa@v,w
  1421  01F4  00F5               	movwf	___lwdiv@dividend
  1422  01F5  120A  118A  237B  120A  118A  	fcall	___lwdiv
  1423  01FA  0874               	movf	?___lwdiv+1,w
  1424  01FB  1283               	bcf	3,5	;RP0=0, select bank0
  1425  01FC  1303               	bcf	3,6	;RP1=0, select bank0
  1426  01FD  00D4               	movwf	utoa@v+1
  1427  01FE  0873               	movf	?___lwdiv,w
  1428  01FF  00D3               	movwf	utoa@v
  1429  0200                     l1796:	
  1430  0200  3001               	movlw	1
  1431  0201  00D2               	movwf	??_utoa
  1432  0202  0852               	movf	??_utoa,w
  1433  0203  07D6               	addwf	utoa@buf,f
  1434  0204                     l1798:	
  1435  0204  0853               	movf	utoa@v,w
  1436  0205  0454               	iorwf	utoa@v+1,w
  1437  0206  1D03               	btfss	3,2
  1438  0207  2A09               	goto	u1441
  1439  0208  2A0A               	goto	u1440
  1440  0209                     u1441:	
  1441  0209  29ED               	goto	l1794
  1442  020A                     u1440:	
  1443  020A                     l1800:	
  1444  020A  0856               	movf	utoa@buf,w
  1445  020B  0084               	movwf	4
  1446  020C  1383               	bcf	3,7	;select IRP bank0
  1447  020D  0180               	clrf	0
  1448  020E                     l1802:	
  1449  020E  3001               	movlw	1
  1450  020F  02D6               	subwf	utoa@buf,f
  1451  0210                     l1804:	
  1452  0210  0851               	movf	utoa@base+1,w
  1453  0211  00F4               	movwf	___lwmod@divisor+1
  1454  0212  0850               	movf	utoa@base,w
  1455  0213  00F3               	movwf	___lwmod@divisor
  1456  0214  084F               	movf	utoa@val+1,w
  1457  0215  00F6               	movwf	___lwmod@dividend+1
  1458  0216  084E               	movf	utoa@val,w
  1459  0217  00F5               	movwf	___lwmod@dividend
  1460  0218  120A  118A  2403  120A  118A  	fcall	___lwmod
  1461  021D  0873               	movf	?___lwmod,w
  1462  021E  1283               	bcf	3,5	;RP0=0, select bank0
  1463  021F  1303               	bcf	3,6	;RP1=0, select bank0
  1464  0220  00D2               	movwf	??_utoa
  1465  0221  0852               	movf	??_utoa,w
  1466  0222  00D5               	movwf	utoa@c
  1467  0223                     l1806:	
  1468  0223  0851               	movf	utoa@base+1,w
  1469  0224  00F4               	movwf	___lwdiv@divisor+1
  1470  0225  0850               	movf	utoa@base,w
  1471  0226  00F3               	movwf	___lwdiv@divisor
  1472  0227  084F               	movf	utoa@val+1,w
  1473  0228  00F6               	movwf	___lwdiv@dividend+1
  1474  0229  084E               	movf	utoa@val,w
  1475  022A  00F5               	movwf	___lwdiv@dividend
  1476  022B  120A  118A  237B  120A  118A  	fcall	___lwdiv
  1477  0230  0874               	movf	?___lwdiv+1,w
  1478  0231  1283               	bcf	3,5	;RP0=0, select bank0
  1479  0232  1303               	bcf	3,6	;RP1=0, select bank0
  1480  0233  00CF               	movwf	utoa@val+1
  1481  0234  0873               	movf	?___lwdiv,w
  1482  0235  00CE               	movwf	utoa@val
  1483  0236                     l1808:	
  1484  0236  300A               	movlw	10
  1485  0237  0255               	subwf	utoa@c,w
  1486  0238  1C03               	skipc
  1487  0239  2A3B               	goto	u1451
  1488  023A  2A3C               	goto	u1450
  1489  023B                     u1451:	
  1490  023B  2A40               	goto	l793
  1491  023C                     u1450:	
  1492  023C                     l1810:	
  1493  023C  3007               	movlw	7
  1494  023D  00D2               	movwf	??_utoa
  1495  023E  0852               	movf	??_utoa,w
  1496  023F  07D5               	addwf	utoa@c,f
  1497  0240                     l793:	
  1498  0240  3030               	movlw	48
  1499  0241  00D2               	movwf	??_utoa
  1500  0242  0852               	movf	??_utoa,w
  1501  0243  07D5               	addwf	utoa@c,f
  1502  0244                     l1812:	
  1503  0244  0855               	movf	utoa@c,w
  1504  0245  00D2               	movwf	??_utoa
  1505  0246  0856               	movf	utoa@buf,w
  1506  0247  0084               	movwf	4
  1507  0248  0852               	movf	??_utoa,w
  1508  0249  1383               	bcf	3,7	;select IRP bank0
  1509  024A  0080               	movwf	0
  1510  024B                     l1814:	
  1511  024B  3001               	movlw	1
  1512  024C  02D6               	subwf	utoa@buf,f
  1513  024D                     l1816:	
  1514  024D  084E               	movf	utoa@val,w
  1515  024E  044F               	iorwf	utoa@val+1,w
  1516  024F  1D03               	btfss	3,2
  1517  0250  2A52               	goto	u1461
  1518  0251  2A53               	goto	u1460
  1519  0252                     u1461:	
  1520  0252  2A10               	goto	l1804
  1521  0253                     u1460:	
  1522  0253                     l1818:	
  1523                           
  1524                           ;	Return value of _utoa is never used
  1525  0253  3001               	movlw	1
  1526  0254  00D2               	movwf	??_utoa
  1527  0255  0852               	movf	??_utoa,w
  1528  0256  07D6               	addwf	utoa@buf,f
  1529  0257                     l795:	
  1530  0257  0008               	return
  1531  0258                     __end_of_utoa:	
  1532                           
  1533                           	psect	text4
  1534  0403                     __ptext4:	
  1535 ;; *************** function ___lwmod *****************
  1536 ;; Defined at:
  1537 ;;		line 5 in file "C:\Program Files (x86)\Microchip\xc8\v2.10\pic\sources\c90\common\lwmod.c"
  1538 ;; Parameters:    Size  Location     Type
  1539 ;;  divisor         2    3[COMMON] unsigned int 
  1540 ;;  dividend        2    5[COMMON] unsigned int 
  1541 ;; Auto vars:     Size  Location     Type
  1542 ;;  counter         1    0[BANK0 ] unsigned char 
  1543 ;; Return value:  Size  Location     Type
  1544 ;;                  2    3[COMMON] unsigned int 
  1545 ;; Registers used:
  1546 ;;		wreg, status,2, status,0
  1547 ;; Tracked objects:
  1548 ;;		On entry : 0/0
  1549 ;;		On exit  : 0/0
  1550 ;;		Unchanged: 0/0
  1551 ;; Data sizes:     COMMON   BANK0   BANK1   BANK3   BANK2
  1552 ;;      Params:         4       0       0       0       0
  1553 ;;      Locals:         0       1       0       0       0
  1554 ;;      Temps:          1       0       0       0       0
  1555 ;;      Totals:         5       1       0       0       0
  1556 ;;Total ram usage:        6 bytes
  1557 ;; Hardware stack levels used:    1
  1558 ;; Hardware stack levels required when called:    1
  1559 ;; This function calls:
  1560 ;;		Nothing
  1561 ;; This function is called by:
  1562 ;;		_utoa
  1563 ;; This function uses a non-reentrant model
  1564 ;;
  1565                           
  1566                           
  1567                           ;psect for function ___lwmod
  1568  0403                     ___lwmod:	
  1569  0403                     l1770:	
  1570                           ;incstack = 0
  1571                           ; Regs used in ___lwmod: [wreg+status,2+status,0]
  1572                           
  1573  0403  0873               	movf	___lwmod@divisor,w
  1574  0404  0474               	iorwf	___lwmod@divisor+1,w
  1575  0405  1903               	btfsc	3,2
  1576  0406  2C08               	goto	u1381
  1577  0407  2C09               	goto	u1380
  1578  0408                     u1381:	
  1579  0408  2C3A               	goto	l1788
  1580  0409                     u1380:	
  1581  0409                     l1772:	
  1582  0409  1283               	bcf	3,5	;RP0=0, select bank0
  1583  040A  1303               	bcf	3,6	;RP1=0, select bank0
  1584  040B  01CB               	clrf	___lwmod@counter
  1585  040C  0ACB               	incf	___lwmod@counter,f
  1586  040D  2C19               	goto	l1778
  1587  040E                     l1774:	
  1588  040E  3001               	movlw	1
  1589  040F                     u1395:	
  1590  040F  1003               	clrc
  1591  0410  0DF3               	rlf	___lwmod@divisor,f
  1592  0411  0DF4               	rlf	___lwmod@divisor+1,f
  1593  0412  3EFF               	addlw	-1
  1594  0413  1D03               	skipz
  1595  0414  2C0F               	goto	u1395
  1596  0415                     l1776:	
  1597  0415  3001               	movlw	1
  1598  0416  00F7               	movwf	??___lwmod
  1599  0417  0877               	movf	??___lwmod,w
  1600  0418  07CB               	addwf	___lwmod@counter,f
  1601  0419                     l1778:	
  1602  0419  1FF4               	btfss	___lwmod@divisor+1,7
  1603  041A  2C1C               	goto	u1401
  1604  041B  2C1D               	goto	u1400
  1605  041C                     u1401:	
  1606  041C  2C0E               	goto	l1774
  1607  041D                     u1400:	
  1608  041D                     l1780:	
  1609  041D  0874               	movf	___lwmod@divisor+1,w
  1610  041E  0276               	subwf	___lwmod@dividend+1,w
  1611  041F  1D03               	skipz
  1612  0420  2C23               	goto	u1415
  1613  0421  0873               	movf	___lwmod@divisor,w
  1614  0422  0275               	subwf	___lwmod@dividend,w
  1615  0423                     u1415:	
  1616  0423  1C03               	skipc
  1617  0424  2C26               	goto	u1411
  1618  0425  2C27               	goto	u1410
  1619  0426                     u1411:	
  1620  0426  2C2D               	goto	l1784
  1621  0427                     u1410:	
  1622  0427                     l1782:	
  1623  0427  0873               	movf	___lwmod@divisor,w
  1624  0428  02F5               	subwf	___lwmod@dividend,f
  1625  0429  0874               	movf	___lwmod@divisor+1,w
  1626  042A  1C03               	skipc
  1627  042B  03F6               	decf	___lwmod@dividend+1,f
  1628  042C  02F6               	subwf	___lwmod@dividend+1,f
  1629  042D                     l1784:	
  1630  042D  3001               	movlw	1
  1631  042E                     u1425:	
  1632  042E  1003               	clrc
  1633  042F  0CF4               	rrf	___lwmod@divisor+1,f
  1634  0430  0CF3               	rrf	___lwmod@divisor,f
  1635  0431  3EFF               	addlw	-1
  1636  0432  1D03               	skipz
  1637  0433  2C2E               	goto	u1425
  1638  0434                     l1786:	
  1639  0434  3001               	movlw	1
  1640  0435  02CB               	subwf	___lwmod@counter,f
  1641  0436  1D03               	btfss	3,2
  1642  0437  2C39               	goto	u1431
  1643  0438  2C3A               	goto	u1430
  1644  0439                     u1431:	
  1645  0439  2C1D               	goto	l1780
  1646  043A                     u1430:	
  1647  043A                     l1788:	
  1648  043A  0876               	movf	___lwmod@dividend+1,w
  1649  043B  00F4               	movwf	?___lwmod+1
  1650  043C  0875               	movf	___lwmod@dividend,w
  1651  043D  00F3               	movwf	?___lwmod
  1652  043E                     l621:	
  1653  043E  0008               	return
  1654  043F                     __end_of___lwmod:	
  1655                           
  1656                           	psect	text5
  1657  037B                     __ptext5:	
  1658 ;; *************** function ___lwdiv *****************
  1659 ;; Defined at:
  1660 ;;		line 5 in file "C:\Program Files (x86)\Microchip\xc8\v2.10\pic\sources\c90\common\lwdiv.c"
  1661 ;; Parameters:    Size  Location     Type
  1662 ;;  divisor         2    3[COMMON] unsigned int 
  1663 ;;  dividend        2    5[COMMON] unsigned int 
  1664 ;; Auto vars:     Size  Location     Type
  1665 ;;  quotient        2    1[BANK0 ] unsigned int 
  1666 ;;  counter         1    0[BANK0 ] unsigned char 
  1667 ;; Return value:  Size  Location     Type
  1668 ;;                  2    3[COMMON] unsigned int 
  1669 ;; Registers used:
  1670 ;;		wreg, status,2, status,0
  1671 ;; Tracked objects:
  1672 ;;		On entry : 0/0
  1673 ;;		On exit  : 0/0
  1674 ;;		Unchanged: 0/0
  1675 ;; Data sizes:     COMMON   BANK0   BANK1   BANK3   BANK2
  1676 ;;      Params:         4       0       0       0       0
  1677 ;;      Locals:         0       3       0       0       0
  1678 ;;      Temps:          1       0       0       0       0
  1679 ;;      Totals:         5       3       0       0       0
  1680 ;;Total ram usage:        8 bytes
  1681 ;; Hardware stack levels used:    1
  1682 ;; Hardware stack levels required when called:    1
  1683 ;; This function calls:
  1684 ;;		Nothing
  1685 ;; This function is called by:
  1686 ;;		_utoa
  1687 ;; This function uses a non-reentrant model
  1688 ;;
  1689                           
  1690                           
  1691                           ;psect for function ___lwdiv
  1692  037B                     ___lwdiv:	
  1693  037B                     l1744:	
  1694                           ;incstack = 0
  1695                           ; Regs used in ___lwdiv: [wreg+status,2+status,0]
  1696                           
  1697  037B  1283               	bcf	3,5	;RP0=0, select bank0
  1698  037C  1303               	bcf	3,6	;RP1=0, select bank0
  1699  037D  01CC               	clrf	___lwdiv@quotient
  1700  037E  01CD               	clrf	___lwdiv@quotient+1
  1701  037F                     l1746:	
  1702  037F  0873               	movf	___lwdiv@divisor,w
  1703  0380  0474               	iorwf	___lwdiv@divisor+1,w
  1704  0381  1903               	btfsc	3,2
  1705  0382  2B84               	goto	u1311
  1706  0383  2B85               	goto	u1310
  1707  0384                     u1311:	
  1708  0384  2BBC               	goto	l1766
  1709  0385                     u1310:	
  1710  0385                     l1748:	
  1711  0385  01CB               	clrf	___lwdiv@counter
  1712  0386  0ACB               	incf	___lwdiv@counter,f
  1713  0387  2B93               	goto	l1754
  1714  0388                     l1750:	
  1715  0388  3001               	movlw	1
  1716  0389                     u1325:	
  1717  0389  1003               	clrc
  1718  038A  0DF3               	rlf	___lwdiv@divisor,f
  1719  038B  0DF4               	rlf	___lwdiv@divisor+1,f
  1720  038C  3EFF               	addlw	-1
  1721  038D  1D03               	skipz
  1722  038E  2B89               	goto	u1325
  1723  038F                     l1752:	
  1724  038F  3001               	movlw	1
  1725  0390  00F7               	movwf	??___lwdiv
  1726  0391  0877               	movf	??___lwdiv,w
  1727  0392  07CB               	addwf	___lwdiv@counter,f
  1728  0393                     l1754:	
  1729  0393  1FF4               	btfss	___lwdiv@divisor+1,7
  1730  0394  2B96               	goto	u1331
  1731  0395  2B97               	goto	u1330
  1732  0396                     u1331:	
  1733  0396  2B88               	goto	l1750
  1734  0397                     u1330:	
  1735  0397                     l1756:	
  1736  0397  3001               	movlw	1
  1737  0398                     u1345:	
  1738  0398  1003               	clrc
  1739  0399  0DCC               	rlf	___lwdiv@quotient,f
  1740  039A  0DCD               	rlf	___lwdiv@quotient+1,f
  1741  039B  3EFF               	addlw	-1
  1742  039C  1D03               	skipz
  1743  039D  2B98               	goto	u1345
  1744  039E  0874               	movf	___lwdiv@divisor+1,w
  1745  039F  0276               	subwf	___lwdiv@dividend+1,w
  1746  03A0  1D03               	skipz
  1747  03A1  2BA4               	goto	u1355
  1748  03A2  0873               	movf	___lwdiv@divisor,w
  1749  03A3  0275               	subwf	___lwdiv@dividend,w
  1750  03A4                     u1355:	
  1751  03A4  1C03               	skipc
  1752  03A5  2BA7               	goto	u1351
  1753  03A6  2BA8               	goto	u1350
  1754  03A7                     u1351:	
  1755  03A7  2BAF               	goto	l1762
  1756  03A8                     u1350:	
  1757  03A8                     l1758:	
  1758  03A8  0873               	movf	___lwdiv@divisor,w
  1759  03A9  02F5               	subwf	___lwdiv@dividend,f
  1760  03AA  0874               	movf	___lwdiv@divisor+1,w
  1761  03AB  1C03               	skipc
  1762  03AC  03F6               	decf	___lwdiv@dividend+1,f
  1763  03AD  02F6               	subwf	___lwdiv@dividend+1,f
  1764  03AE                     l1760:	
  1765  03AE  144C               	bsf	___lwdiv@quotient,0
  1766  03AF                     l1762:	
  1767  03AF  3001               	movlw	1
  1768  03B0                     u1365:	
  1769  03B0  1003               	clrc
  1770  03B1  0CF4               	rrf	___lwdiv@divisor+1,f
  1771  03B2  0CF3               	rrf	___lwdiv@divisor,f
  1772  03B3  3EFF               	addlw	-1
  1773  03B4  1D03               	skipz
  1774  03B5  2BB0               	goto	u1365
  1775  03B6                     l1764:	
  1776  03B6  3001               	movlw	1
  1777  03B7  02CB               	subwf	___lwdiv@counter,f
  1778  03B8  1D03               	btfss	3,2
  1779  03B9  2BBB               	goto	u1371
  1780  03BA  2BBC               	goto	u1370
  1781  03BB                     u1371:	
  1782  03BB  2B97               	goto	l1756
  1783  03BC                     u1370:	
  1784  03BC                     l1766:	
  1785  03BC  084D               	movf	___lwdiv@quotient+1,w
  1786  03BD  00F4               	movwf	?___lwdiv+1
  1787  03BE  084C               	movf	___lwdiv@quotient,w
  1788  03BF  00F3               	movwf	?___lwdiv
  1789  03C0                     l611:	
  1790  03C0  0008               	return
  1791  03C1                     __end_of___lwdiv:	
  1792                           
  1793                           	psect	text6
  1794  02C1                     __ptext6:	
  1795 ;; *************** function _initOsc *****************
  1796 ;; Defined at:
  1797 ;;		line 9 in file "OSCILADOR.c"
  1798 ;; Parameters:    Size  Location     Type
  1799 ;;  frec            1    wreg     unsigned char 
  1800 ;; Auto vars:     Size  Location     Type
  1801 ;;  frec            1    5[COMMON] unsigned char 
  1802 ;; Return value:  Size  Location     Type
  1803 ;;                  1    wreg      void 
  1804 ;; Registers used:
  1805 ;;		wreg, fsr0l, fsr0h, status,2, status,0
  1806 ;; Tracked objects:
  1807 ;;		On entry : 0/0
  1808 ;;		On exit  : 0/0
  1809 ;;		Unchanged: 0/0
  1810 ;; Data sizes:     COMMON   BANK0   BANK1   BANK3   BANK2
  1811 ;;      Params:         0       0       0       0       0
  1812 ;;      Locals:         1       0       0       0       0
  1813 ;;      Temps:          2       0       0       0       0
  1814 ;;      Totals:         3       0       0       0       0
  1815 ;;Total ram usage:        3 bytes
  1816 ;; Hardware stack levels used:    1
  1817 ;; Hardware stack levels required when called:    1
  1818 ;; This function calls:
  1819 ;;		Nothing
  1820 ;; This function is called by:
  1821 ;;		_main
  1822 ;; This function uses a non-reentrant model
  1823 ;;
  1824                           
  1825                           
  1826                           ;psect for function _initOsc
  1827  02C1                     _initOsc:	
  1828                           
  1829                           ;incstack = 0
  1830                           ; Regs used in _initOsc: [wreg-fsr0h+status,2+status,0]
  1831                           ;initOsc@frec stored from wreg
  1832  02C1  00F5               	movwf	initOsc@frec
  1833  02C2                     l1444:	
  1834                           
  1835                           ;OSCILADOR.c: 10:     switch(frec){
  1836  02C2  2AF9               	goto	l1448
  1837  02C3                     l167:	
  1838                           ;OSCILADOR.c: 11:         case 0:
  1839                           
  1840                           
  1841                           ;OSCILADOR.c: 12:             OSCCONbits.IRCF0 = 0;
  1842  02C3  1683               	bsf	3,5	;RP0=1, select bank1
  1843  02C4  1303               	bcf	3,6	;RP1=0, select bank1
  1844  02C5  120F               	bcf	15,4	;volatile
  1845                           
  1846                           ;OSCILADOR.c: 13:             OSCCONbits.IRCF1 = 0;
  1847  02C6  128F               	bcf	15,5	;volatile
  1848                           
  1849                           ;OSCILADOR.c: 14:             OSCCONbits.IRCF2 = 0;
  1850  02C7  130F               	bcf	15,6	;volatile
  1851                           
  1852                           ;OSCILADOR.c: 15:             break;
  1853  02C8  2B1B               	goto	l168
  1854  02C9                     l169:	
  1855                           ;OSCILADOR.c: 16:         case 1:
  1856                           
  1857                           
  1858                           ;OSCILADOR.c: 17:             OSCCONbits.IRCF0 = 1;
  1859  02C9  1683               	bsf	3,5	;RP0=1, select bank1
  1860  02CA  1303               	bcf	3,6	;RP1=0, select bank1
  1861  02CB  160F               	bsf	15,4	;volatile
  1862                           
  1863                           ;OSCILADOR.c: 18:             OSCCONbits.IRCF1 = 0;
  1864  02CC  128F               	bcf	15,5	;volatile
  1865                           
  1866                           ;OSCILADOR.c: 19:             OSCCONbits.IRCF2 = 0;
  1867  02CD  130F               	bcf	15,6	;volatile
  1868                           
  1869                           ;OSCILADOR.c: 20:             break;
  1870  02CE  2B1B               	goto	l168
  1871  02CF                     l170:	
  1872                           ;OSCILADOR.c: 21:         case 2:
  1873                           
  1874                           
  1875                           ;OSCILADOR.c: 22:             OSCCONbits.IRCF0 = 0;
  1876  02CF  1683               	bsf	3,5	;RP0=1, select bank1
  1877  02D0  1303               	bcf	3,6	;RP1=0, select bank1
  1878  02D1  120F               	bcf	15,4	;volatile
  1879                           
  1880                           ;OSCILADOR.c: 23:             OSCCONbits.IRCF1 = 1;
  1881  02D2  168F               	bsf	15,5	;volatile
  1882                           
  1883                           ;OSCILADOR.c: 24:             OSCCONbits.IRCF2 = 0;
  1884  02D3  130F               	bcf	15,6	;volatile
  1885                           
  1886                           ;OSCILADOR.c: 25:             break;
  1887  02D4  2B1B               	goto	l168
  1888  02D5                     l171:	
  1889                           ;OSCILADOR.c: 26:         case 3:
  1890                           
  1891                           
  1892                           ;OSCILADOR.c: 27:             OSCCONbits.IRCF0 = 1;
  1893  02D5  1683               	bsf	3,5	;RP0=1, select bank1
  1894  02D6  1303               	bcf	3,6	;RP1=0, select bank1
  1895  02D7  160F               	bsf	15,4	;volatile
  1896                           
  1897                           ;OSCILADOR.c: 28:             OSCCONbits.IRCF1 = 1;
  1898  02D8  168F               	bsf	15,5	;volatile
  1899                           
  1900                           ;OSCILADOR.c: 29:             OSCCONbits.IRCF2 = 0;
  1901  02D9  130F               	bcf	15,6	;volatile
  1902                           
  1903                           ;OSCILADOR.c: 30:             break;
  1904  02DA  2B1B               	goto	l168
  1905  02DB                     l172:	
  1906                           ;OSCILADOR.c: 31:         case 4:
  1907                           
  1908                           
  1909                           ;OSCILADOR.c: 32:             OSCCONbits.IRCF0 = 0;
  1910  02DB  1683               	bsf	3,5	;RP0=1, select bank1
  1911  02DC  1303               	bcf	3,6	;RP1=0, select bank1
  1912  02DD  120F               	bcf	15,4	;volatile
  1913                           
  1914                           ;OSCILADOR.c: 33:             OSCCONbits.IRCF1 = 0;
  1915  02DE  128F               	bcf	15,5	;volatile
  1916                           
  1917                           ;OSCILADOR.c: 34:             OSCCONbits.IRCF2 = 1;
  1918  02DF  170F               	bsf	15,6	;volatile
  1919                           
  1920                           ;OSCILADOR.c: 35:             break;
  1921  02E0  2B1B               	goto	l168
  1922  02E1                     l173:	
  1923                           ;OSCILADOR.c: 36:         case 5:
  1924                           
  1925                           
  1926                           ;OSCILADOR.c: 37:             OSCCONbits.IRCF0 = 1;
  1927  02E1  1683               	bsf	3,5	;RP0=1, select bank1
  1928  02E2  1303               	bcf	3,6	;RP1=0, select bank1
  1929  02E3  160F               	bsf	15,4	;volatile
  1930                           
  1931                           ;OSCILADOR.c: 38:             OSCCONbits.IRCF1 = 0;
  1932  02E4  128F               	bcf	15,5	;volatile
  1933                           
  1934                           ;OSCILADOR.c: 39:             OSCCONbits.IRCF2 = 1;
  1935  02E5  170F               	bsf	15,6	;volatile
  1936                           
  1937                           ;OSCILADOR.c: 40:             break;
  1938  02E6  2B1B               	goto	l168
  1939  02E7                     l174:	
  1940                           ;OSCILADOR.c: 41:         case 6:
  1941                           
  1942                           
  1943                           ;OSCILADOR.c: 42:             OSCCONbits.IRCF0 = 0;
  1944  02E7  1683               	bsf	3,5	;RP0=1, select bank1
  1945  02E8  1303               	bcf	3,6	;RP1=0, select bank1
  1946  02E9  120F               	bcf	15,4	;volatile
  1947                           
  1948                           ;OSCILADOR.c: 43:             OSCCONbits.IRCF1 = 1;
  1949  02EA  168F               	bsf	15,5	;volatile
  1950                           
  1951                           ;OSCILADOR.c: 44:             OSCCONbits.IRCF2 = 1;
  1952  02EB  170F               	bsf	15,6	;volatile
  1953                           
  1954                           ;OSCILADOR.c: 45:             break;
  1955  02EC  2B1B               	goto	l168
  1956  02ED                     l175:	
  1957                           ;OSCILADOR.c: 46:         case 7:
  1958                           
  1959                           
  1960                           ;OSCILADOR.c: 47:             OSCCONbits.IRCF0 = 1;
  1961  02ED  1683               	bsf	3,5	;RP0=1, select bank1
  1962  02EE  1303               	bcf	3,6	;RP1=0, select bank1
  1963  02EF  160F               	bsf	15,4	;volatile
  1964                           
  1965                           ;OSCILADOR.c: 48:             OSCCONbits.IRCF1 = 1;
  1966  02F0  168F               	bsf	15,5	;volatile
  1967                           
  1968                           ;OSCILADOR.c: 49:             OSCCONbits.IRCF2 = 1;
  1969  02F1  170F               	bsf	15,6	;volatile
  1970                           
  1971                           ;OSCILADOR.c: 50:             break;
  1972  02F2  2B1B               	goto	l168
  1973  02F3                     l176:	
  1974                           ;OSCILADOR.c: 51:         default:
  1975                           
  1976                           
  1977                           ;OSCILADOR.c: 52:             OSCCONbits.IRCF0 = 0;
  1978  02F3  1683               	bsf	3,5	;RP0=1, select bank1
  1979  02F4  1303               	bcf	3,6	;RP1=0, select bank1
  1980  02F5  120F               	bcf	15,4	;volatile
  1981                           
  1982                           ;OSCILADOR.c: 53:             OSCCONbits.IRCF1 = 1;
  1983  02F6  168F               	bsf	15,5	;volatile
  1984                           
  1985                           ;OSCILADOR.c: 54:             OSCCONbits.IRCF2 = 1;
  1986  02F7  170F               	bsf	15,6	;volatile
  1987                           
  1988                           ;OSCILADOR.c: 55:             break;
  1989  02F8  2B1B               	goto	l168
  1990  02F9                     l1448:	
  1991  02F9  0875               	movf	initOsc@frec,w
  1992  02FA  00F3               	movwf	??_initOsc
  1993  02FB  01F4               	clrf	??_initOsc+1
  1994                           
  1995                           ; Switch on 2 bytes has been partitioned into a top level switch of size 1, and 1 sub-sw
      +                          itches
  1996                           ; Switch size 1, requested type "simple"
  1997                           ; Number of cases is 1, Range of values is 0 to 0
  1998                           ; switch strategies available:
  1999                           ; Name         Instructions Cycles
  2000                           ; simple_byte            4     3 (average)
  2001                           ; direct_byte           11     8 (fixed)
  2002                           ; jumptable            260     6 (fixed)
  2003                           ;	Chosen strategy is simple_byte
  2004  02FC  0874               	movf	??_initOsc+1,w
  2005  02FD  3A00               	xorlw	0	; case 0
  2006  02FE  1903               	skipnz
  2007  02FF  2B01               	goto	l1934
  2008  0300  2AF3               	goto	l176
  2009  0301                     l1934:	
  2010                           
  2011                           ; Switch size 1, requested type "simple"
  2012                           ; Number of cases is 8, Range of values is 0 to 7
  2013                           ; switch strategies available:
  2014                           ; Name         Instructions Cycles
  2015                           ; simple_byte           25    13 (average)
  2016                           ; direct_byte           32     8 (fixed)
  2017                           ; jumptable            260     6 (fixed)
  2018                           ;	Chosen strategy is simple_byte
  2019  0301  0873               	movf	??_initOsc,w
  2020  0302  3A00               	xorlw	0	; case 0
  2021  0303  1903               	skipnz
  2022  0304  2AC3               	goto	l167
  2023  0305  3A01               	xorlw	1	; case 1
  2024  0306  1903               	skipnz
  2025  0307  2AC9               	goto	l169
  2026  0308  3A03               	xorlw	3	; case 2
  2027  0309  1903               	skipnz
  2028  030A  2ACF               	goto	l170
  2029  030B  3A01               	xorlw	1	; case 3
  2030  030C  1903               	skipnz
  2031  030D  2AD5               	goto	l171
  2032  030E  3A07               	xorlw	7	; case 4
  2033  030F  1903               	skipnz
  2034  0310  2ADB               	goto	l172
  2035  0311  3A01               	xorlw	1	; case 5
  2036  0312  1903               	skipnz
  2037  0313  2AE1               	goto	l173
  2038  0314  3A03               	xorlw	3	; case 6
  2039  0315  1903               	skipnz
  2040  0316  2AE7               	goto	l174
  2041  0317  3A01               	xorlw	1	; case 7
  2042  0318  1903               	skipnz
  2043  0319  2AED               	goto	l175
  2044  031A  2AF3               	goto	l176
  2045  031B                     l168:	
  2046                           
  2047                           ;OSCILADOR.c: 58:     OSCCONbits.SCS = 1;
  2048  031B  140F               	bsf	15,0	;volatile
  2049                           
  2050                           ;OSCILADOR.c: 59:     OSCCONbits.OSTS = 0;
  2051  031C  118F               	bcf	15,3	;volatile
  2052                           
  2053                           ;OSCILADOR.c: 60:     OSCCONbits.HTS = 0;
  2054  031D  110F               	bcf	15,2	;volatile
  2055                           
  2056                           ;OSCILADOR.c: 61:     OSCCONbits.LTS = 0;
  2057  031E  108F               	bcf	15,1	;volatile
  2058  031F                     l177:	
  2059  031F  0008               	return
  2060  0320                     __end_of_initOsc:	
  2061                           
  2062                           	psect	text7
  2063  0320                     __ptext7:	
  2064 ;; *************** function ___awmod *****************
  2065 ;; Defined at:
  2066 ;;		line 5 in file "C:\Program Files (x86)\Microchip\xc8\v2.10\pic\sources\c90\common\awmod.c"
  2067 ;; Parameters:    Size  Location     Type
  2068 ;;  divisor         2    3[COMMON] int 
  2069 ;;  dividend        2    5[COMMON] int 
  2070 ;; Auto vars:     Size  Location     Type
  2071 ;;  sign            1    1[BANK0 ] unsigned char 
  2072 ;;  counter         1    0[BANK0 ] unsigned char 
  2073 ;; Return value:  Size  Location     Type
  2074 ;;                  2    3[COMMON] int 
  2075 ;; Registers used:
  2076 ;;		wreg, status,2, status,0
  2077 ;; Tracked objects:
  2078 ;;		On entry : 0/0
  2079 ;;		On exit  : 0/0
  2080 ;;		Unchanged: 0/0
  2081 ;; Data sizes:     COMMON   BANK0   BANK1   BANK3   BANK2
  2082 ;;      Params:         4       0       0       0       0
  2083 ;;      Locals:         0       2       0       0       0
  2084 ;;      Temps:          1       0       0       0       0
  2085 ;;      Totals:         5       2       0       0       0
  2086 ;;Total ram usage:        7 bytes
  2087 ;; Hardware stack levels used:    1
  2088 ;; Hardware stack levels required when called:    1
  2089 ;; This function calls:
  2090 ;;		Nothing
  2091 ;; This function is called by:
  2092 ;;		_main
  2093 ;; This function uses a non-reentrant model
  2094 ;;
  2095                           
  2096                           
  2097                           ;psect for function ___awmod
  2098  0320                     ___awmod:	
  2099  0320                     l1836:	
  2100                           ;incstack = 0
  2101                           ; Regs used in ___awmod: [wreg+status,2+status,0]
  2102                           
  2103  0320  1283               	bcf	3,5	;RP0=0, select bank0
  2104  0321  1303               	bcf	3,6	;RP1=0, select bank0
  2105  0322  01CC               	clrf	___awmod@sign
  2106  0323                     l1838:	
  2107  0323  1FF6               	btfss	___awmod@dividend+1,7
  2108  0324  2B26               	goto	u1481
  2109  0325  2B27               	goto	u1480
  2110  0326                     u1481:	
  2111  0326  2B2E               	goto	l1844
  2112  0327                     u1480:	
  2113  0327                     l1840:	
  2114  0327  09F5               	comf	___awmod@dividend,f
  2115  0328  09F6               	comf	___awmod@dividend+1,f
  2116  0329  0AF5               	incf	___awmod@dividend,f
  2117  032A  1903               	skipnz
  2118  032B  0AF6               	incf	___awmod@dividend+1,f
  2119  032C                     l1842:	
  2120  032C  01CC               	clrf	___awmod@sign
  2121  032D  0ACC               	incf	___awmod@sign,f
  2122  032E                     l1844:	
  2123  032E  1FF4               	btfss	___awmod@divisor+1,7
  2124  032F  2B31               	goto	u1491
  2125  0330  2B32               	goto	u1490
  2126  0331                     u1491:	
  2127  0331  2B37               	goto	l1848
  2128  0332                     u1490:	
  2129  0332                     l1846:	
  2130  0332  09F3               	comf	___awmod@divisor,f
  2131  0333  09F4               	comf	___awmod@divisor+1,f
  2132  0334  0AF3               	incf	___awmod@divisor,f
  2133  0335  1903               	skipnz
  2134  0336  0AF4               	incf	___awmod@divisor+1,f
  2135  0337                     l1848:	
  2136  0337  0873               	movf	___awmod@divisor,w
  2137  0338  0474               	iorwf	___awmod@divisor+1,w
  2138  0339  1903               	btfsc	3,2
  2139  033A  2B3C               	goto	u1501
  2140  033B  2B3D               	goto	u1500
  2141  033C                     u1501:	
  2142  033C  2B6C               	goto	l1866
  2143  033D                     u1500:	
  2144  033D                     l1850:	
  2145  033D  01CB               	clrf	___awmod@counter
  2146  033E  0ACB               	incf	___awmod@counter,f
  2147  033F  2B4B               	goto	l1856
  2148  0340                     l1852:	
  2149  0340  3001               	movlw	1
  2150  0341                     u1515:	
  2151  0341  1003               	clrc
  2152  0342  0DF3               	rlf	___awmod@divisor,f
  2153  0343  0DF4               	rlf	___awmod@divisor+1,f
  2154  0344  3EFF               	addlw	-1
  2155  0345  1D03               	skipz
  2156  0346  2B41               	goto	u1515
  2157  0347                     l1854:	
  2158  0347  3001               	movlw	1
  2159  0348  00F7               	movwf	??___awmod
  2160  0349  0877               	movf	??___awmod,w
  2161  034A  07CB               	addwf	___awmod@counter,f
  2162  034B                     l1856:	
  2163  034B  1FF4               	btfss	___awmod@divisor+1,7
  2164  034C  2B4E               	goto	u1521
  2165  034D  2B4F               	goto	u1520
  2166  034E                     u1521:	
  2167  034E  2B40               	goto	l1852
  2168  034F                     u1520:	
  2169  034F                     l1858:	
  2170  034F  0874               	movf	___awmod@divisor+1,w
  2171  0350  0276               	subwf	___awmod@dividend+1,w
  2172  0351  1D03               	skipz
  2173  0352  2B55               	goto	u1535
  2174  0353  0873               	movf	___awmod@divisor,w
  2175  0354  0275               	subwf	___awmod@dividend,w
  2176  0355                     u1535:	
  2177  0355  1C03               	skipc
  2178  0356  2B58               	goto	u1531
  2179  0357  2B59               	goto	u1530
  2180  0358                     u1531:	
  2181  0358  2B5F               	goto	l1862
  2182  0359                     u1530:	
  2183  0359                     l1860:	
  2184  0359  0873               	movf	___awmod@divisor,w
  2185  035A  02F5               	subwf	___awmod@dividend,f
  2186  035B  0874               	movf	___awmod@divisor+1,w
  2187  035C  1C03               	skipc
  2188  035D  03F6               	decf	___awmod@dividend+1,f
  2189  035E  02F6               	subwf	___awmod@dividend+1,f
  2190  035F                     l1862:	
  2191  035F  3001               	movlw	1
  2192  0360                     u1545:	
  2193  0360  1003               	clrc
  2194  0361  0CF4               	rrf	___awmod@divisor+1,f
  2195  0362  0CF3               	rrf	___awmod@divisor,f
  2196  0363  3EFF               	addlw	-1
  2197  0364  1D03               	skipz
  2198  0365  2B60               	goto	u1545
  2199  0366                     l1864:	
  2200  0366  3001               	movlw	1
  2201  0367  02CB               	subwf	___awmod@counter,f
  2202  0368  1D03               	btfss	3,2
  2203  0369  2B6B               	goto	u1551
  2204  036A  2B6C               	goto	u1550
  2205  036B                     u1551:	
  2206  036B  2B4F               	goto	l1858
  2207  036C                     u1550:	
  2208  036C                     l1866:	
  2209  036C  084C               	movf	___awmod@sign,w
  2210  036D  1903               	btfsc	3,2
  2211  036E  2B70               	goto	u1561
  2212  036F  2B71               	goto	u1560
  2213  0370                     u1561:	
  2214  0370  2B76               	goto	l1870
  2215  0371                     u1560:	
  2216  0371                     l1868:	
  2217  0371  09F5               	comf	___awmod@dividend,f
  2218  0372  09F6               	comf	___awmod@dividend+1,f
  2219  0373  0AF5               	incf	___awmod@dividend,f
  2220  0374  1903               	skipnz
  2221  0375  0AF6               	incf	___awmod@dividend+1,f
  2222  0376                     l1870:	
  2223  0376  0876               	movf	___awmod@dividend+1,w
  2224  0377  00F4               	movwf	?___awmod+1
  2225  0378  0875               	movf	___awmod@dividend,w
  2226  0379  00F3               	movwf	?___awmod
  2227  037A                     l505:	
  2228  037A  0008               	return
  2229  037B                     __end_of___awmod:	
  2230                           
  2231                           	psect	text8
  2232  0258                     __ptext8:	
  2233 ;; *************** function ___awdiv *****************
  2234 ;; Defined at:
  2235 ;;		line 5 in file "C:\Program Files (x86)\Microchip\xc8\v2.10\pic\sources\c90\common\awdiv.c"
  2236 ;; Parameters:    Size  Location     Type
  2237 ;;  divisor         2    3[COMMON] int 
  2238 ;;  dividend        2    5[COMMON] int 
  2239 ;; Auto vars:     Size  Location     Type
  2240 ;;  quotient        2    2[BANK0 ] int 
  2241 ;;  sign            1    1[BANK0 ] unsigned char 
  2242 ;;  counter         1    0[BANK0 ] unsigned char 
  2243 ;; Return value:  Size  Location     Type
  2244 ;;                  2    3[COMMON] int 
  2245 ;; Registers used:
  2246 ;;		wreg, status,2, status,0
  2247 ;; Tracked objects:
  2248 ;;		On entry : 0/0
  2249 ;;		On exit  : 0/0
  2250 ;;		Unchanged: 0/0
  2251 ;; Data sizes:     COMMON   BANK0   BANK1   BANK3   BANK2
  2252 ;;      Params:         4       0       0       0       0
  2253 ;;      Locals:         0       4       0       0       0
  2254 ;;      Temps:          1       0       0       0       0
  2255 ;;      Totals:         5       4       0       0       0
  2256 ;;Total ram usage:        9 bytes
  2257 ;; Hardware stack levels used:    1
  2258 ;; Hardware stack levels required when called:    1
  2259 ;; This function calls:
  2260 ;;		Nothing
  2261 ;; This function is called by:
  2262 ;;		_main
  2263 ;; This function uses a non-reentrant model
  2264 ;;
  2265                           
  2266                           
  2267                           ;psect for function ___awdiv
  2268  0258                     ___awdiv:	
  2269  0258                     l1552:	
  2270                           ;incstack = 0
  2271                           ; Regs used in ___awdiv: [wreg+status,2+status,0]
  2272                           
  2273  0258  1283               	bcf	3,5	;RP0=0, select bank0
  2274  0259  1303               	bcf	3,6	;RP1=0, select bank0
  2275  025A  01CC               	clrf	___awdiv@sign
  2276  025B                     l1554:	
  2277  025B  1FF4               	btfss	___awdiv@divisor+1,7
  2278  025C  2A5E               	goto	u961
  2279  025D  2A5F               	goto	u960
  2280  025E                     u961:	
  2281  025E  2A66               	goto	l1560
  2282  025F                     u960:	
  2283  025F                     l1556:	
  2284  025F  09F3               	comf	___awdiv@divisor,f
  2285  0260  09F4               	comf	___awdiv@divisor+1,f
  2286  0261  0AF3               	incf	___awdiv@divisor,f
  2287  0262  1903               	skipnz
  2288  0263  0AF4               	incf	___awdiv@divisor+1,f
  2289  0264                     l1558:	
  2290  0264  01CC               	clrf	___awdiv@sign
  2291  0265  0ACC               	incf	___awdiv@sign,f
  2292  0266                     l1560:	
  2293  0266  1FF6               	btfss	___awdiv@dividend+1,7
  2294  0267  2A69               	goto	u971
  2295  0268  2A6A               	goto	u970
  2296  0269                     u971:	
  2297  0269  2A73               	goto	l1566
  2298  026A                     u970:	
  2299  026A                     l1562:	
  2300  026A  09F5               	comf	___awdiv@dividend,f
  2301  026B  09F6               	comf	___awdiv@dividend+1,f
  2302  026C  0AF5               	incf	___awdiv@dividend,f
  2303  026D  1903               	skipnz
  2304  026E  0AF6               	incf	___awdiv@dividend+1,f
  2305  026F                     l1564:	
  2306  026F  3001               	movlw	1
  2307  0270  00F7               	movwf	??___awdiv
  2308  0271  0877               	movf	??___awdiv,w
  2309  0272  06CC               	xorwf	___awdiv@sign,f
  2310  0273                     l1566:	
  2311  0273  01CD               	clrf	___awdiv@quotient
  2312  0274  01CE               	clrf	___awdiv@quotient+1
  2313  0275                     l1568:	
  2314  0275  0873               	movf	___awdiv@divisor,w
  2315  0276  0474               	iorwf	___awdiv@divisor+1,w
  2316  0277  1903               	btfsc	3,2
  2317  0278  2A7A               	goto	u981
  2318  0279  2A7B               	goto	u980
  2319  027A                     u981:	
  2320  027A  2AB2               	goto	l1588
  2321  027B                     u980:	
  2322  027B                     l1570:	
  2323  027B  01CB               	clrf	___awdiv@counter
  2324  027C  0ACB               	incf	___awdiv@counter,f
  2325  027D  2A89               	goto	l1576
  2326  027E                     l1572:	
  2327  027E  3001               	movlw	1
  2328  027F                     u995:	
  2329  027F  1003               	clrc
  2330  0280  0DF3               	rlf	___awdiv@divisor,f
  2331  0281  0DF4               	rlf	___awdiv@divisor+1,f
  2332  0282  3EFF               	addlw	-1
  2333  0283  1D03               	skipz
  2334  0284  2A7F               	goto	u995
  2335  0285                     l1574:	
  2336  0285  3001               	movlw	1
  2337  0286  00F7               	movwf	??___awdiv
  2338  0287  0877               	movf	??___awdiv,w
  2339  0288  07CB               	addwf	___awdiv@counter,f
  2340  0289                     l1576:	
  2341  0289  1FF4               	btfss	___awdiv@divisor+1,7
  2342  028A  2A8C               	goto	u1001
  2343  028B  2A8D               	goto	u1000
  2344  028C                     u1001:	
  2345  028C  2A7E               	goto	l1572
  2346  028D                     u1000:	
  2347  028D                     l1578:	
  2348  028D  3001               	movlw	1
  2349  028E                     u1015:	
  2350  028E  1003               	clrc
  2351  028F  0DCD               	rlf	___awdiv@quotient,f
  2352  0290  0DCE               	rlf	___awdiv@quotient+1,f
  2353  0291  3EFF               	addlw	-1
  2354  0292  1D03               	skipz
  2355  0293  2A8E               	goto	u1015
  2356  0294  0874               	movf	___awdiv@divisor+1,w
  2357  0295  0276               	subwf	___awdiv@dividend+1,w
  2358  0296  1D03               	skipz
  2359  0297  2A9A               	goto	u1025
  2360  0298  0873               	movf	___awdiv@divisor,w
  2361  0299  0275               	subwf	___awdiv@dividend,w
  2362  029A                     u1025:	
  2363  029A  1C03               	skipc
  2364  029B  2A9D               	goto	u1021
  2365  029C  2A9E               	goto	u1020
  2366  029D                     u1021:	
  2367  029D  2AA5               	goto	l1584
  2368  029E                     u1020:	
  2369  029E                     l1580:	
  2370  029E  0873               	movf	___awdiv@divisor,w
  2371  029F  02F5               	subwf	___awdiv@dividend,f
  2372  02A0  0874               	movf	___awdiv@divisor+1,w
  2373  02A1  1C03               	skipc
  2374  02A2  03F6               	decf	___awdiv@dividend+1,f
  2375  02A3  02F6               	subwf	___awdiv@dividend+1,f
  2376  02A4                     l1582:	
  2377  02A4  144D               	bsf	___awdiv@quotient,0
  2378  02A5                     l1584:	
  2379  02A5  3001               	movlw	1
  2380  02A6                     u1035:	
  2381  02A6  1003               	clrc
  2382  02A7  0CF4               	rrf	___awdiv@divisor+1,f
  2383  02A8  0CF3               	rrf	___awdiv@divisor,f
  2384  02A9  3EFF               	addlw	-1
  2385  02AA  1D03               	skipz
  2386  02AB  2AA6               	goto	u1035
  2387  02AC                     l1586:	
  2388  02AC  3001               	movlw	1
  2389  02AD  02CB               	subwf	___awdiv@counter,f
  2390  02AE  1D03               	btfss	3,2
  2391  02AF  2AB1               	goto	u1041
  2392  02B0  2AB2               	goto	u1040
  2393  02B1                     u1041:	
  2394  02B1  2A8D               	goto	l1578
  2395  02B2                     u1040:	
  2396  02B2                     l1588:	
  2397  02B2  084C               	movf	___awdiv@sign,w
  2398  02B3  1903               	btfsc	3,2
  2399  02B4  2AB6               	goto	u1051
  2400  02B5  2AB7               	goto	u1050
  2401  02B6                     u1051:	
  2402  02B6  2ABC               	goto	l1592
  2403  02B7                     u1050:	
  2404  02B7                     l1590:	
  2405  02B7  09CD               	comf	___awdiv@quotient,f
  2406  02B8  09CE               	comf	___awdiv@quotient+1,f
  2407  02B9  0ACD               	incf	___awdiv@quotient,f
  2408  02BA  1903               	skipnz
  2409  02BB  0ACE               	incf	___awdiv@quotient+1,f
  2410  02BC                     l1592:	
  2411  02BC  084E               	movf	___awdiv@quotient+1,w
  2412  02BD  00F4               	movwf	?___awdiv+1
  2413  02BE  084D               	movf	___awdiv@quotient,w
  2414  02BF  00F3               	movwf	?___awdiv
  2415  02C0                     l492:	
  2416  02C0  0008               	return
  2417  02C1                     __end_of___awdiv:	
  2418                           
  2419                           	psect	text9
  2420  04EE                     __ptext9:	
  2421 ;; *************** function _START_DHT11 *****************
  2422 ;; Defined at:
  2423 ;;		line 195 in file "Luz_y_Temperatura.c"
  2424 ;; Parameters:    Size  Location     Type
  2425 ;;		None
  2426 ;; Auto vars:     Size  Location     Type
  2427 ;;		None
  2428 ;; Return value:  Size  Location     Type
  2429 ;;                  1    wreg      void 
  2430 ;; Registers used:
  2431 ;;		wreg
  2432 ;; Tracked objects:
  2433 ;;		On entry : 0/0
  2434 ;;		On exit  : 0/0
  2435 ;;		Unchanged: 0/0
  2436 ;; Data sizes:     COMMON   BANK0   BANK1   BANK3   BANK2
  2437 ;;      Params:         0       0       0       0       0
  2438 ;;      Locals:         0       0       0       0       0
  2439 ;;      Temps:          2       0       0       0       0
  2440 ;;      Totals:         2       0       0       0       0
  2441 ;;Total ram usage:        2 bytes
  2442 ;; Hardware stack levels used:    1
  2443 ;; Hardware stack levels required when called:    1
  2444 ;; This function calls:
  2445 ;;		Nothing
  2446 ;; This function is called by:
  2447 ;;		_main
  2448 ;; This function uses a non-reentrant model
  2449 ;;
  2450                           
  2451                           
  2452                           ;psect for function _START_DHT11
  2453  04EE                     _START_DHT11:	
  2454  04EE                     l1484:	
  2455                           ;incstack = 0
  2456                           ; Regs used in _START_DHT11: [wreg]
  2457                           
  2458                           
  2459                           ;Luz_y_Temperatura.c: 196:     TRISDbits.TRISD2 = 0;
  2460  04EE  1683               	bsf	3,5	;RP0=1, select bank1
  2461  04EF  1303               	bcf	3,6	;RP1=0, select bank1
  2462  04F0  1108               	bcf	8,2	;volatile
  2463                           
  2464                           ;Luz_y_Temperatura.c: 197:     PORTDbits.RD2 = 0;
  2465  04F1  1283               	bcf	3,5	;RP0=0, select bank0
  2466  04F2  1303               	bcf	3,6	;RP1=0, select bank0
  2467  04F3  1108               	bcf	8,2	;volatile
  2468  04F4                     l1486:	
  2469                           
  2470                           ;Luz_y_Temperatura.c: 198:     _delay((unsigned long)((18)*(4000000/4000.0)));
  2471  04F4  3018               	movlw	24
  2472  04F5  00F4               	movwf	??_START_DHT11+1
  2473  04F6  305F               	movlw	95
  2474  04F7  00F3               	movwf	??_START_DHT11
  2475  04F8                     u1617:	
  2476  04F8  0BF3               	decfsz	??_START_DHT11,f
  2477  04F9  2CF8               	goto	u1617
  2478  04FA  0BF4               	decfsz	??_START_DHT11+1,f
  2479  04FB  2CF8               	goto	u1617
  2480  04FC                     l1488:	
  2481                           
  2482                           ;Luz_y_Temperatura.c: 199:     PORTDbits.RD2 = 1;
  2483  04FC  1283               	bcf	3,5	;RP0=0, select bank0
  2484  04FD  1303               	bcf	3,6	;RP1=0, select bank0
  2485  04FE  1508               	bsf	8,2	;volatile
  2486                           
  2487                           ;Luz_y_Temperatura.c: 200:     _delay((unsigned long)((30)*(4000000/4000000.0)));
  2488  04FF  3009               	movlw	9
  2489  0500  00F3               	movwf	??_START_DHT11
  2490  0501                     u1627:	
  2491  0501  0BF3               	decfsz	??_START_DHT11,f
  2492  0502  2D01               	goto	u1627
  2493  0503  2D04               	nop2
  2494  0504                     l1490:	
  2495                           
  2496                           ;Luz_y_Temperatura.c: 201:     TRISDbits.TRISD2=1;
  2497  0504  1683               	bsf	3,5	;RP0=1, select bank1
  2498  0505  1303               	bcf	3,6	;RP1=0, select bank1
  2499  0506  1508               	bsf	8,2	;volatile
  2500  0507                     l143:	
  2501  0507  0008               	return
  2502  0508                     __end_of_START_DHT11:	
  2503                           
  2504                           	psect	text10
  2505  04D1                     __ptext10:	
  2506 ;; *************** function _SETUP *****************
  2507 ;; Defined at:
  2508 ;;		line 178 in file "Luz_y_Temperatura.c"
  2509 ;; Parameters:    Size  Location     Type
  2510 ;;		None
  2511 ;; Auto vars:     Size  Location     Type
  2512 ;;		None
  2513 ;; Return value:  Size  Location     Type
  2514 ;;                  1    wreg      void 
  2515 ;; Registers used:
  2516 ;;		wreg, status,2, status,0, pclath, cstack
  2517 ;; Tracked objects:
  2518 ;;		On entry : 0/0
  2519 ;;		On exit  : 0/0
  2520 ;;		Unchanged: 0/0
  2521 ;; Data sizes:     COMMON   BANK0   BANK1   BANK3   BANK2
  2522 ;;      Params:         0       0       0       0       0
  2523 ;;      Locals:         0       0       0       0       0
  2524 ;;      Temps:          0       0       0       0       0
  2525 ;;      Totals:         0       0       0       0       0
  2526 ;;Total ram usage:        0 bytes
  2527 ;; Hardware stack levels used:    1
  2528 ;; Hardware stack levels required when called:    2
  2529 ;; This function calls:
  2530 ;;		_I2C_Slave_Init
  2531 ;; This function is called by:
  2532 ;;		_main
  2533 ;; This function uses a non-reentrant model
  2534 ;;
  2535                           
  2536                           
  2537                           ;psect for function _SETUP
  2538  04D1                     _SETUP:	
  2539  04D1                     l1420:	
  2540                           ;incstack = 0
  2541                           ; Regs used in _SETUP: [wreg+status,2+status,0+pclath+cstack]
  2542                           
  2543                           
  2544                           ;Luz_y_Temperatura.c: 179:     TRISA = 0b00000001;
  2545  04D1  3001               	movlw	1
  2546  04D2  1683               	bsf	3,5	;RP0=1, select bank1
  2547  04D3  1303               	bcf	3,6	;RP1=0, select bank1
  2548  04D4  0085               	movwf	5	;volatile
  2549  04D5                     l1422:	
  2550                           
  2551                           ;Luz_y_Temperatura.c: 180:     TRISB = 0;
  2552  04D5  0186               	clrf	6	;volatile
  2553  04D6                     l1424:	
  2554                           
  2555                           ;Luz_y_Temperatura.c: 181:     TRISC = 0b00011000;
  2556  04D6  3018               	movlw	24
  2557  04D7  0087               	movwf	7	;volatile
  2558                           
  2559                           ;Luz_y_Temperatura.c: 182:     TRISD = 0;
  2560  04D8  0188               	clrf	8	;volatile
  2561  04D9                     l1426:	
  2562                           
  2563                           ;Luz_y_Temperatura.c: 183:     TRISDbits.TRISD1 = 0;
  2564  04D9  1088               	bcf	8,1	;volatile
  2565                           
  2566                           ;Luz_y_Temperatura.c: 184:     TRISE = 0;
  2567  04DA  0189               	clrf	9	;volatile
  2568  04DB                     l1428:	
  2569                           
  2570                           ;Luz_y_Temperatura.c: 185:     ANSEL = 0b00000001;
  2571  04DB  3001               	movlw	1
  2572  04DC  1683               	bsf	3,5	;RP0=1, select bank3
  2573  04DD  1703               	bsf	3,6	;RP1=1, select bank3
  2574  04DE  0088               	movwf	8	;volatile
  2575  04DF                     l1430:	
  2576                           
  2577                           ;Luz_y_Temperatura.c: 186:     ANSELH = 0;
  2578  04DF  0189               	clrf	9	;volatile
  2579  04E0                     l1432:	
  2580                           
  2581                           ;Luz_y_Temperatura.c: 187:     PORTB = 0;
  2582  04E0  1283               	bcf	3,5	;RP0=0, select bank0
  2583  04E1  1303               	bcf	3,6	;RP1=0, select bank0
  2584  04E2  0186               	clrf	6	;volatile
  2585  04E3                     l1434:	
  2586                           
  2587                           ;Luz_y_Temperatura.c: 188:     PORTC = 0;
  2588  04E3  0187               	clrf	7	;volatile
  2589  04E4                     l1436:	
  2590                           
  2591                           ;Luz_y_Temperatura.c: 189:     PORTD = 0;
  2592  04E4  0188               	clrf	8	;volatile
  2593  04E5                     l1438:	
  2594                           
  2595                           ;Luz_y_Temperatura.c: 190:     PORTE = 0;
  2596  04E5  0189               	clrf	9	;volatile
  2597  04E6                     l1440:	
  2598                           
  2599                           ;Luz_y_Temperatura.c: 191:     PORTA = 0;
  2600  04E6  0185               	clrf	5	;volatile
  2601  04E7                     l1442:	
  2602                           
  2603                           ;Luz_y_Temperatura.c: 192:     I2C_Slave_Init(0x30);
  2604  04E7  3030               	movlw	48
  2605  04E8  120A  118A  2508  120A  118A  	fcall	_I2C_Slave_Init
  2606  04ED                     l140:	
  2607  04ED  0008               	return
  2608  04EE                     __end_of_SETUP:	
  2609                           
  2610                           	psect	text11
  2611  0508                     __ptext11:	
  2612 ;; *************** function _I2C_Slave_Init *****************
  2613 ;; Defined at:
  2614 ;;		line 76 in file "I2C.c"
  2615 ;; Parameters:    Size  Location     Type
  2616 ;;  address         1    wreg     unsigned char 
  2617 ;; Auto vars:     Size  Location     Type
  2618 ;;  address         1    3[COMMON] unsigned char 
  2619 ;; Return value:  Size  Location     Type
  2620 ;;                  1    wreg      void 
  2621 ;; Registers used:
  2622 ;;		wreg
  2623 ;; Tracked objects:
  2624 ;;		On entry : 0/0
  2625 ;;		On exit  : 0/0
  2626 ;;		Unchanged: 0/0
  2627 ;; Data sizes:     COMMON   BANK0   BANK1   BANK3   BANK2
  2628 ;;      Params:         0       0       0       0       0
  2629 ;;      Locals:         1       0       0       0       0
  2630 ;;      Temps:          0       0       0       0       0
  2631 ;;      Totals:         1       0       0       0       0
  2632 ;;Total ram usage:        1 bytes
  2633 ;; Hardware stack levels used:    1
  2634 ;; Hardware stack levels required when called:    1
  2635 ;; This function calls:
  2636 ;;		Nothing
  2637 ;; This function is called by:
  2638 ;;		_SETUP
  2639 ;; This function uses a non-reentrant model
  2640 ;;
  2641                           
  2642                           
  2643                           ;psect for function _I2C_Slave_Init
  2644  0508                     _I2C_Slave_Init:	
  2645                           
  2646                           ;incstack = 0
  2647                           ; Regs used in _I2C_Slave_Init: [wreg]
  2648                           ;I2C_Slave_Init@address stored from wreg
  2649  0508  00F3               	movwf	I2C_Slave_Init@address
  2650  0509                     l1376:	
  2651                           
  2652                           ;I2C.c: 77:     SSPADD = address;
  2653  0509  0873               	movf	I2C_Slave_Init@address,w
  2654  050A  1683               	bsf	3,5	;RP0=1, select bank1
  2655  050B  1303               	bcf	3,6	;RP1=0, select bank1
  2656  050C  0093               	movwf	19	;volatile
  2657                           
  2658                           ;I2C.c: 78:     SSPCON = 0x36;
  2659  050D  3036               	movlw	54
  2660  050E  1283               	bcf	3,5	;RP0=0, select bank0
  2661  050F  1303               	bcf	3,6	;RP1=0, select bank0
  2662  0510  0094               	movwf	20	;volatile
  2663                           
  2664                           ;I2C.c: 79:     SSPSTAT = 0x80;
  2665  0511  3080               	movlw	128
  2666  0512  1683               	bsf	3,5	;RP0=1, select bank1
  2667  0513  1303               	bcf	3,6	;RP1=0, select bank1
  2668  0514  0094               	movwf	20	;volatile
  2669                           
  2670                           ;I2C.c: 80:     SSPCON2 = 0x01;
  2671  0515  3001               	movlw	1
  2672  0516  0091               	movwf	17	;volatile
  2673  0517                     l1378:	
  2674                           
  2675                           ;I2C.c: 81:     TRISC3 = 1;
  2676  0517  1587               	bsf	7,3	;volatile
  2677  0518                     l1380:	
  2678                           
  2679                           ;I2C.c: 82:     TRISC4 = 1;
  2680  0518  1607               	bsf	7,4	;volatile
  2681  0519                     l1382:	
  2682                           
  2683                           ;I2C.c: 83:     GIE = 1;
  2684  0519  178B               	bsf	11,7	;volatile
  2685  051A                     l1384:	
  2686                           
  2687                           ;I2C.c: 84:     PEIE = 1;
  2688  051A  170B               	bsf	11,6	;volatile
  2689  051B                     l1386:	
  2690                           
  2691                           ;I2C.c: 85:     SSPIF = 0;
  2692  051B  1283               	bcf	3,5	;RP0=0, select bank0
  2693  051C  1303               	bcf	3,6	;RP1=0, select bank0
  2694  051D  118C               	bcf	12,3	;volatile
  2695  051E                     l1388:	
  2696                           
  2697                           ;I2C.c: 86:     SSPIE = 1;
  2698  051E  1683               	bsf	3,5	;RP0=1, select bank1
  2699  051F  1303               	bcf	3,6	;RP1=0, select bank1
  2700  0520  158C               	bsf	12,3	;volatile
  2701  0521                     l253:	
  2702  0521  0008               	return
  2703  0522                     __end_of_I2C_Slave_Init:	
  2704                           
  2705                           	psect	text12
  2706  03C1                     __ptext12:	
  2707 ;; *************** function _ReadData *****************
  2708 ;; Defined at:
  2709 ;;		line 216 in file "Luz_y_Temperatura.c"
  2710 ;; Parameters:    Size  Location     Type
  2711 ;;		None
  2712 ;; Auto vars:     Size  Location     Type
  2713 ;;  j               1    6[COMMON] unsigned char 
  2714 ;;  i               1    5[COMMON] unsigned char 
  2715 ;; Return value:  Size  Location     Type
  2716 ;;                  1    wreg      unsigned char 
  2717 ;; Registers used:
  2718 ;;		wreg, status,2, status,0
  2719 ;; Tracked objects:
  2720 ;;		On entry : 0/0
  2721 ;;		On exit  : 0/0
  2722 ;;		Unchanged: 0/0
  2723 ;; Data sizes:     COMMON   BANK0   BANK1   BANK3   BANK2
  2724 ;;      Params:         0       0       0       0       0
  2725 ;;      Locals:         2       0       0       0       0
  2726 ;;      Temps:          2       0       0       0       0
  2727 ;;      Totals:         4       0       0       0       0
  2728 ;;Total ram usage:        4 bytes
  2729 ;; Hardware stack levels used:    1
  2730 ;; Hardware stack levels required when called:    1
  2731 ;; This function calls:
  2732 ;;		Nothing
  2733 ;; This function is called by:
  2734 ;;		_main
  2735 ;; This function uses a non-reentrant model
  2736 ;;
  2737                           
  2738                           
  2739                           ;psect for function _ReadData
  2740  03C1                     _ReadData:	
  2741  03C1                     l1506:	
  2742                           ;incstack = 0
  2743                           ; Regs used in _ReadData: [wreg+status,2+status,0]
  2744                           
  2745                           
  2746                           ;Luz_y_Temperatura.c: 217:     char i, j;;Luz_y_Temperatura.c: 218:     for(j = 0; j<8; 
      +                          j++){
  2747  03C1  01F6               	clrf	ReadData@j
  2748  03C2                     l153:	
  2749  03C2  1283               	bcf	3,5	;RP0=0, select bank0
  2750  03C3  1303               	bcf	3,6	;RP1=0, select bank0
  2751  03C4  1D08               	btfss	8,2	;volatile
  2752  03C5  2BC7               	goto	u871
  2753  03C6  2BC8               	goto	u870
  2754  03C7                     u871:	
  2755  03C7  2BC2               	goto	l153
  2756  03C8                     u870:	
  2757  03C8                     l1512:	
  2758                           
  2759                           ;Luz_y_Temperatura.c: 220:         _delay((unsigned long)((30)*(4000000/4000000.0)));
  2760  03C8  3009               	movlw	9
  2761  03C9  00F3               	movwf	??_ReadData
  2762  03CA                     u1637:	
  2763  03CA  0BF3               	decfsz	??_ReadData,f
  2764  03CB  2BCA               	goto	u1637
  2765  03CC  2BCD               	nop2
  2766  03CD                     l1514:	
  2767                           
  2768                           ;Luz_y_Temperatura.c: 221:         if(PORTDbits.RD2 == 0)
  2769  03CD  1283               	bcf	3,5	;RP0=0, select bank0
  2770  03CE  1303               	bcf	3,6	;RP1=0, select bank0
  2771  03CF  1908               	btfsc	8,2	;volatile
  2772  03D0  2BD2               	goto	u881
  2773  03D1  2BD3               	goto	u880
  2774  03D2                     u881:	
  2775  03D2  2BE4               	goto	l1518
  2776  03D3                     u880:	
  2777  03D3                     l1516:	
  2778                           
  2779                           ;Luz_y_Temperatura.c: 222:          i&= ~(1<<(7-j));
  2780  03D3  3001               	movlw	1
  2781  03D4  00F3               	movwf	??_ReadData
  2782  03D5  0876               	movf	ReadData@j,w
  2783  03D6  3C07               	sublw	7
  2784  03D7  3E01               	addlw	1
  2785  03D8  2BDB               	goto	u894
  2786  03D9                     u895:	
  2787  03D9  1003               	clrc
  2788  03DA  0DF3               	rlf	??_ReadData,f
  2789  03DB                     u894:	
  2790  03DB  3EFF               	addlw	-1
  2791  03DC  1D03               	skipz
  2792  03DD  2BD9               	goto	u895
  2793  03DE  0873               	movf	??_ReadData,w
  2794  03DF  3AFF               	xorlw	255
  2795  03E0  00F4               	movwf	??_ReadData+1
  2796  03E1  0874               	movf	??_ReadData+1,w
  2797  03E2  05F5               	andwf	ReadData@i,f
  2798  03E3  2BF7               	goto	l1520
  2799  03E4                     l1518:	
  2800                           
  2801                           ;Luz_y_Temperatura.c: 224:          i|= (1<< (7-j));
  2802  03E4  3001               	movlw	1
  2803  03E5  00F3               	movwf	??_ReadData
  2804  03E6  0876               	movf	ReadData@j,w
  2805  03E7  3C07               	sublw	7
  2806  03E8  3E01               	addlw	1
  2807  03E9  2BEC               	goto	u904
  2808  03EA                     u905:	
  2809  03EA  1003               	clrc
  2810  03EB  0DF3               	rlf	??_ReadData,f
  2811  03EC                     u904:	
  2812  03EC  3EFF               	addlw	-1
  2813  03ED  1D03               	skipz
  2814  03EE  2BEA               	goto	u905
  2815  03EF  0873               	movf	??_ReadData,w
  2816  03F0  00F4               	movwf	??_ReadData+1
  2817  03F1  0874               	movf	??_ReadData+1,w
  2818  03F2  04F5               	iorwf	ReadData@i,f
  2819  03F3                     l158:	
  2820                           ;Luz_y_Temperatura.c: 225:         while(PORTDbits.RD2);
  2821                           
  2822  03F3  1908               	btfsc	8,2	;volatile
  2823  03F4  2BF6               	goto	u911
  2824  03F5  2BF7               	goto	u910
  2825  03F6                     u911:	
  2826  03F6  2BF3               	goto	l158
  2827  03F7                     u910:	
  2828  03F7                     l1520:	
  2829                           
  2830                           ;Luz_y_Temperatura.c: 227:     }
  2831  03F7  3001               	movlw	1
  2832  03F8  00F3               	movwf	??_ReadData
  2833  03F9  0873               	movf	??_ReadData,w
  2834  03FA  07F6               	addwf	ReadData@j,f
  2835  03FB                     l1522:	
  2836  03FB  3008               	movlw	8
  2837  03FC  0276               	subwf	ReadData@j,w
  2838  03FD  1C03               	skipc
  2839  03FE  2C00               	goto	u921
  2840  03FF  2C01               	goto	u920
  2841  0400                     u921:	
  2842  0400  2BC2               	goto	l153
  2843  0401                     u920:	
  2844  0401                     l1524:	
  2845                           
  2846                           ;Luz_y_Temperatura.c: 228:     return i;
  2847  0401  0875               	movf	ReadData@i,w
  2848  0402                     l161:	
  2849  0402  0008               	return
  2850  0403                     __end_of_ReadData:	
  2851                           
  2852                           	psect	text13
  2853  04B2                     __ptext13:	
  2854 ;; *************** function _CHECK_RESPONSE *****************
  2855 ;; Defined at:
  2856 ;;		line 204 in file "Luz_y_Temperatura.c"
  2857 ;; Parameters:    Size  Location     Type
  2858 ;;		None
  2859 ;; Auto vars:     Size  Location     Type
  2860 ;;		None
  2861 ;; Return value:  Size  Location     Type
  2862 ;;                  1    wreg      void 
  2863 ;; Registers used:
  2864 ;;		wreg, status,2
  2865 ;; Tracked objects:
  2866 ;;		On entry : 0/0
  2867 ;;		On exit  : 0/0
  2868 ;;		Unchanged: 0/0
  2869 ;; Data sizes:     COMMON   BANK0   BANK1   BANK3   BANK2
  2870 ;;      Params:         0       0       0       0       0
  2871 ;;      Locals:         0       0       0       0       0
  2872 ;;      Temps:          1       0       0       0       0
  2873 ;;      Totals:         1       0       0       0       0
  2874 ;;Total ram usage:        1 bytes
  2875 ;; Hardware stack levels used:    1
  2876 ;; Hardware stack levels required when called:    1
  2877 ;; This function calls:
  2878 ;;		Nothing
  2879 ;; This function is called by:
  2880 ;;		_main
  2881 ;; This function uses a non-reentrant model
  2882 ;;
  2883                           
  2884                           
  2885                           ;psect for function _CHECK_RESPONSE
  2886  04B2                     _CHECK_RESPONSE:	
  2887  04B2                     l1492:	
  2888                           ;incstack = 0
  2889                           ; Regs used in _CHECK_RESPONSE: [wreg+status,2]
  2890                           
  2891                           
  2892                           ;Luz_y_Temperatura.c: 205:     check = 0;
  2893  04B2  1283               	bcf	3,5	;RP0=0, select bank0
  2894  04B3  1303               	bcf	3,6	;RP1=0, select bank0
  2895  04B4  01B5               	clrf	_check
  2896  04B5                     l1494:	
  2897                           
  2898                           ;Luz_y_Temperatura.c: 206:     _delay((unsigned long)((40)*(4000000/4000000.0)));
  2899  04B5  300D               	movlw	13
  2900  04B6  00F3               	movwf	??_CHECK_RESPONSE
  2901  04B7                     u1647:	
  2902  04B7  0BF3               	decfsz	??_CHECK_RESPONSE,f
  2903  04B8  2CB7               	goto	u1647
  2904  04B9                     l1496:	
  2905                           
  2906                           ;Luz_y_Temperatura.c: 207:     if(PORTDbits.RD2 == 0){
  2907  04B9  1283               	bcf	3,5	;RP0=0, select bank0
  2908  04BA  1303               	bcf	3,6	;RP1=0, select bank0
  2909  04BB  1908               	btfsc	8,2	;volatile
  2910  04BC  2CBE               	goto	u851
  2911  04BD  2CBF               	goto	u850
  2912  04BE                     u851:	
  2913  04BE  2CD0               	goto	l148
  2914  04BF                     u850:	
  2915  04BF                     l1498:	
  2916                           
  2917                           ;Luz_y_Temperatura.c: 208:         _delay((unsigned long)((80)*(4000000/4000000.0)));
  2918  04BF  301A               	movlw	26
  2919  04C0  00F3               	movwf	??_CHECK_RESPONSE
  2920  04C1                     u1657:	
  2921  04C1  0BF3               	decfsz	??_CHECK_RESPONSE,f
  2922  04C2  2CC1               	goto	u1657
  2923  04C3  0000               	nop
  2924  04C4                     l1500:	
  2925                           
  2926                           ;Luz_y_Temperatura.c: 209:         if(PORTDbits.RD2 == 1){
  2927  04C4  1283               	bcf	3,5	;RP0=0, select bank0
  2928  04C5  1303               	bcf	3,6	;RP1=0, select bank0
  2929  04C6  1D08               	btfss	8,2	;volatile
  2930  04C7  2CC9               	goto	u861
  2931  04C8  2CCA               	goto	u860
  2932  04C9                     u861:	
  2933  04C9  2CD0               	goto	l148
  2934  04CA                     u860:	
  2935  04CA                     l1502:	
  2936                           
  2937                           ;Luz_y_Temperatura.c: 210:             check = 1;
  2938  04CA  01B5               	clrf	_check
  2939  04CB  0AB5               	incf	_check,f
  2940  04CC                     l1504:	
  2941                           
  2942                           ;Luz_y_Temperatura.c: 211:             _delay((unsigned long)((40)*(4000000/4000000.0)))
      +                          ;
  2943  04CC  300D               	movlw	13
  2944  04CD  00F3               	movwf	??_CHECK_RESPONSE
  2945  04CE                     u1667:	
  2946  04CE  0BF3               	decfsz	??_CHECK_RESPONSE,f
  2947  04CF  2CCE               	goto	u1667
  2948  04D0                     l148:	
  2949  04D0  0008               	return
  2950  04D1                     __end_of_CHECK_RESPONSE:	
  2951                           
  2952                           	psect	text14
  2953  0522                     __ptext14:	
  2954 ;; *************** function _ADCSETUP *****************
  2955 ;; Defined at:
  2956 ;;		line 3 in file "ADC.c"
  2957 ;; Parameters:    Size  Location     Type
  2958 ;;		None
  2959 ;; Auto vars:     Size  Location     Type
  2960 ;;		None
  2961 ;; Return value:  Size  Location     Type
  2962 ;;                  1    wreg      void 
  2963 ;; Registers used:
  2964 ;;		wreg, status,2, status,0
  2965 ;; Tracked objects:
  2966 ;;		On entry : 0/0
  2967 ;;		On exit  : 0/0
  2968 ;;		Unchanged: 0/0
  2969 ;; Data sizes:     COMMON   BANK0   BANK1   BANK3   BANK2
  2970 ;;      Params:         0       0       0       0       0
  2971 ;;      Locals:         0       0       0       0       0
  2972 ;;      Temps:          0       0       0       0       0
  2973 ;;      Totals:         0       0       0       0       0
  2974 ;;Total ram usage:        0 bytes
  2975 ;; Hardware stack levels used:    1
  2976 ;; Hardware stack levels required when called:    1
  2977 ;; This function calls:
  2978 ;;		Nothing
  2979 ;; This function is called by:
  2980 ;;		_main
  2981 ;; This function uses a non-reentrant model
  2982 ;;
  2983                           
  2984                           
  2985                           ;psect for function _ADCSETUP
  2986  0522                     _ADCSETUP:	
  2987  0522                     l1454:	
  2988                           ;incstack = 0
  2989                           ; Regs used in _ADCSETUP: [wreg+status,2+status,0]
  2990                           
  2991                           
  2992                           ;ADC.c: 4:     ADCON0bits.ADCS = 01;
  2993  0522  1283               	bcf	3,5	;RP0=0, select bank0
  2994  0523  1303               	bcf	3,6	;RP1=0, select bank0
  2995  0524  081F               	movf	31,w	;volatile
  2996  0525  393F               	andlw	-193
  2997  0526  3840               	iorlw	64
  2998  0527  009F               	movwf	31	;volatile
  2999  0528                     l1456:	
  3000                           
  3001                           ;ADC.c: 5:     ADCON0bits.ADON = 1;
  3002  0528  141F               	bsf	31,0	;volatile
  3003  0529                     l1458:	
  3004                           
  3005                           ;ADC.c: 6:     ADCON1bits.ADFM = 0;
  3006  0529  1683               	bsf	3,5	;RP0=1, select bank1
  3007  052A  1303               	bcf	3,6	;RP1=0, select bank1
  3008  052B  139F               	bcf	31,7	;volatile
  3009  052C                     l1460:	
  3010                           
  3011                           ;ADC.c: 7:     ADCON1bits.VCFG0 = 0;
  3012  052C  121F               	bcf	31,4	;volatile
  3013  052D                     l1462:	
  3014                           
  3015                           ;ADC.c: 8:     ADCON1bits.VCFG1 = 0;
  3016  052D  129F               	bcf	31,5	;volatile
  3017  052E                     l192:	
  3018  052E  0008               	return
  3019  052F                     __end_of_ADCSETUP:	
  3020                           
  3021                           	psect	text15
  3022  048E                     __ptext15:	
  3023 ;; *************** function _ADC1 *****************
  3024 ;; Defined at:
  3025 ;;		line 10 in file "ADC.c"
  3026 ;; Parameters:    Size  Location     Type
  3027 ;;		None
  3028 ;; Auto vars:     Size  Location     Type
  3029 ;;		None
  3030 ;; Return value:  Size  Location     Type
  3031 ;;                  1    wreg      void 
  3032 ;; Registers used:
  3033 ;;		wreg
  3034 ;; Tracked objects:
  3035 ;;		On entry : 0/0
  3036 ;;		On exit  : 0/0
  3037 ;;		Unchanged: 0/0
  3038 ;; Data sizes:     COMMON   BANK0   BANK1   BANK3   BANK2
  3039 ;;      Params:         0       0       0       0       0
  3040 ;;      Locals:         0       0       0       0       0
  3041 ;;      Temps:          2       0       0       0       0
  3042 ;;      Totals:         2       0       0       0       0
  3043 ;;Total ram usage:        2 bytes
  3044 ;; Hardware stack levels used:    1
  3045 ;; Hardware stack levels required when called:    1
  3046 ;; This function calls:
  3047 ;;		Nothing
  3048 ;; This function is called by:
  3049 ;;		_main
  3050 ;; This function uses a non-reentrant model
  3051 ;;
  3052                           
  3053                           
  3054                           ;psect for function _ADC1
  3055  048E                     _ADC1:	
  3056  048E                     l1464:	
  3057                           ;incstack = 0
  3058                           ; Regs used in _ADC1: [wreg]
  3059                           
  3060                           
  3061                           ;ADC.c: 11:     _delay((unsigned long)((1)*(8000000/4000.0)));
  3062  048E  3003               	movlw	3
  3063  048F  00F4               	movwf	??_ADC1+1
  3064  0490  3097               	movlw	151
  3065  0491  00F3               	movwf	??_ADC1
  3066  0492                     u1677:	
  3067  0492  0BF3               	decfsz	??_ADC1,f
  3068  0493  2C92               	goto	u1677
  3069  0494  0BF4               	decfsz	??_ADC1+1,f
  3070  0495  2C92               	goto	u1677
  3071  0496  2C97               	nop2
  3072  0497                     l1466:	
  3073                           
  3074                           ;ADC.c: 12:     ADCON0bits.CHS0 = 0;
  3075  0497  1283               	bcf	3,5	;RP0=0, select bank0
  3076  0498  1303               	bcf	3,6	;RP1=0, select bank0
  3077  0499  111F               	bcf	31,2	;volatile
  3078  049A                     l1468:	
  3079                           
  3080                           ;ADC.c: 13:     ADCON0bits.CHS1 = 0;
  3081  049A  119F               	bcf	31,3	;volatile
  3082  049B                     l1470:	
  3083                           
  3084                           ;ADC.c: 14:     ADCON0bits.CHS2 = 0;
  3085  049B  121F               	bcf	31,4	;volatile
  3086  049C                     l1472:	
  3087                           
  3088                           ;ADC.c: 15:     ADCON0bits.CHS3 = 0;
  3089  049C  129F               	bcf	31,5	;volatile
  3090                           
  3091                           ;ADC.c: 16:     _delay((unsigned long)((600)*(8000000/4000000.0)));
  3092  049D  30EF               	movlw	239
  3093  049E  00F3               	movwf	??_ADC1
  3094  049F                     u1687:	
  3095  049F  2CA0               	nop2
  3096  04A0  0BF3               	decfsz	??_ADC1,f
  3097  04A1  2C9F               	goto	u1687
  3098  04A2  2CA3               	nop2
  3099  04A3  2CA4               	nop2
  3100  04A4                     l1474:	
  3101                           
  3102                           ;ADC.c: 17:     ADCON0bits.ADON = 1;
  3103  04A4  1283               	bcf	3,5	;RP0=0, select bank0
  3104  04A5  1303               	bcf	3,6	;RP1=0, select bank0
  3105  04A6  141F               	bsf	31,0	;volatile
  3106  04A7                     l1476:	
  3107                           
  3108                           ;ADC.c: 18:     PIR1bits.ADIF = 0;
  3109  04A7  130C               	bcf	12,6	;volatile
  3110  04A8                     l1478:	
  3111                           
  3112                           ;ADC.c: 19:     ADCON0bits.GO = 1;
  3113  04A8  149F               	bsf	31,1	;volatile
  3114  04A9                     l195:	
  3115                           ;ADC.c: 20:     while(ADCON0bits.GO == 1);
  3116                           
  3117  04A9  189F               	btfsc	31,1	;volatile
  3118  04AA  2CAC               	goto	u841
  3119  04AB  2CAD               	goto	u840
  3120  04AC                     u841:	
  3121  04AC  2CA9               	goto	l195
  3122  04AD                     u840:	
  3123  04AD                     l1480:	
  3124                           
  3125                           ;ADC.c: 21:     adc = ADRESH;
  3126  04AD  081E               	movf	30,w	;volatile
  3127  04AE  00F3               	movwf	??_ADC1
  3128  04AF  0873               	movf	??_ADC1,w
  3129  04B0  00FA               	movwf	_adc
  3130  04B1                     l198:	
  3131  04B1  0008               	return
  3132  04B2                     __end_of_ADC1:	
  3133                           
  3134                           	psect	text16
  3135  0163                     __ptext16:	
  3136 ;; *************** function _isr *****************
  3137 ;; Defined at:
  3138 ;;		line 87 in file "Luz_y_Temperatura.c"
  3139 ;; Parameters:    Size  Location     Type
  3140 ;;		None
  3141 ;; Auto vars:     Size  Location     Type
  3142 ;;		None
  3143 ;; Return value:  Size  Location     Type
  3144 ;;                  1    wreg      void 
  3145 ;; Registers used:
  3146 ;;		wreg, status,2, status,0
  3147 ;; Tracked objects:
  3148 ;;		On entry : 0/0
  3149 ;;		On exit  : 0/0
  3150 ;;		Unchanged: 0/0
  3151 ;; Data sizes:     COMMON   BANK0   BANK1   BANK3   BANK2
  3152 ;;      Params:         0       0       0       0       0
  3153 ;;      Locals:         0       0       0       0       0
  3154 ;;      Temps:          3       0       0       0       0
  3155 ;;      Totals:         3       0       0       0       0
  3156 ;;Total ram usage:        3 bytes
  3157 ;; Hardware stack levels used:    1
  3158 ;; This function calls:
  3159 ;;		Nothing
  3160 ;; This function is called by:
  3161 ;;		Interrupt level 1
  3162 ;; This function uses a non-reentrant model
  3163 ;;
  3164                           
  3165                           
  3166                           ;psect for function _isr
  3167  0163                     _isr:	
  3168  0163                     i1l1634:	
  3169                           
  3170                           ;Luz_y_Temperatura.c: 88:    if(PIR1bits.SSPIF == 1){
  3171  0163  1283               	bcf	3,5	;RP0=0, select bank0
  3172  0164  1303               	bcf	3,6	;RP1=0, select bank0
  3173  0165  1D8C               	btfss	12,3	;volatile
  3174  0166  2968               	goto	u115_21
  3175  0167  2969               	goto	u115_20
  3176  0168                     u115_21:	
  3177  0168  29DF               	goto	i1l121
  3178  0169                     u115_20:	
  3179  0169                     i1l1636:	
  3180                           
  3181                           ;Luz_y_Temperatura.c: 90:         SSPCONbits.CKP = 0;
  3182  0169  1214               	bcf	20,4	;volatile
  3183                           
  3184                           ;Luz_y_Temperatura.c: 92:         if ((SSPCONbits.SSPOV) || (SSPCONbits.WCOL)){
  3185  016A  1B14               	btfsc	20,6	;volatile
  3186  016B  296D               	goto	u116_21
  3187  016C  296E               	goto	u116_20
  3188  016D                     u116_21:	
  3189  016D  2972               	goto	i1l1640
  3190  016E                     u116_20:	
  3191  016E                     i1l1638:	
  3192  016E  1F94               	btfss	20,7	;volatile
  3193  016F  2971               	goto	u117_21
  3194  0170  2972               	goto	u117_20
  3195  0171                     u117_21:	
  3196  0171  2979               	goto	i1l1648
  3197  0172                     u117_20:	
  3198  0172                     i1l1640:	
  3199                           
  3200                           ;Luz_y_Temperatura.c: 93:             z = SSPBUF;
  3201  0172  0813               	movf	19,w	;volatile
  3202  0173  00F0               	movwf	??_isr
  3203  0174  0870               	movf	??_isr,w
  3204  0175  00B6               	movwf	_z
  3205  0176                     i1l1642:	
  3206                           
  3207                           ;Luz_y_Temperatura.c: 94:             SSPCONbits.SSPOV = 0;
  3208  0176  1314               	bcf	20,6	;volatile
  3209  0177                     i1l1644:	
  3210                           
  3211                           ;Luz_y_Temperatura.c: 95:             SSPCONbits.WCOL = 0;
  3212  0177  1394               	bcf	20,7	;volatile
  3213  0178                     i1l1646:	
  3214                           
  3215                           ;Luz_y_Temperatura.c: 96:             SSPCONbits.CKP = 1;
  3216  0178  1614               	bsf	20,4	;volatile
  3217  0179                     i1l1648:	
  3218                           
  3219                           ;Luz_y_Temperatura.c: 99:         if(!SSPSTATbits.D_nA && !SSPSTATbits.R_nW) {
  3220  0179  1683               	bsf	3,5	;RP0=1, select bank1
  3221  017A  1303               	bcf	3,6	;RP1=0, select bank1
  3222  017B  1A94               	btfsc	20,5	;volatile
  3223  017C  297E               	goto	u118_21
  3224  017D  297F               	goto	u118_20
  3225  017E                     u118_21:	
  3226  017E  299A               	goto	i1l111
  3227  017F                     u118_20:	
  3228  017F                     i1l1650:	
  3229  017F  1914               	btfsc	20,2	;volatile
  3230  0180  2982               	goto	u119_21
  3231  0181  2983               	goto	u119_20
  3232  0182                     u119_21:	
  3233  0182  299A               	goto	i1l111
  3234  0183                     u119_20:	
  3235  0183                     i1l1652:	
  3236                           
  3237                           ;Luz_y_Temperatura.c: 101:             z = SSPBUF;
  3238  0183  1283               	bcf	3,5	;RP0=0, select bank0
  3239  0184  1303               	bcf	3,6	;RP1=0, select bank0
  3240  0185  0813               	movf	19,w	;volatile
  3241  0186  00F0               	movwf	??_isr
  3242  0187  0870               	movf	??_isr,w
  3243  0188  00B6               	movwf	_z
  3244  0189                     i1l1654:	
  3245                           
  3246                           ;Luz_y_Temperatura.c: 103:             PIR1bits.SSPIF = 0;
  3247  0189  118C               	bcf	12,3	;volatile
  3248  018A                     i1l1656:	
  3249                           
  3250                           ;Luz_y_Temperatura.c: 104:             SSPCONbits.CKP = 1;
  3251  018A  1614               	bsf	20,4	;volatile
  3252  018B                     i1l112:	
  3253                           ;Luz_y_Temperatura.c: 105:             while(!SSPSTATbits.BF);
  3254                           
  3255  018B  1683               	bsf	3,5	;RP0=1, select bank1
  3256  018C  1303               	bcf	3,6	;RP1=0, select bank1
  3257  018D  1C14               	btfss	20,0	;volatile
  3258  018E  2990               	goto	u120_21
  3259  018F  2991               	goto	u120_20
  3260  0190                     u120_21:	
  3261  0190  298B               	goto	i1l112
  3262  0191                     u120_20:	
  3263  0191                     i1l1658:	
  3264                           
  3265                           ;Luz_y_Temperatura.c: 106:             PORTD = SSPBUF;
  3266  0191  1283               	bcf	3,5	;RP0=0, select bank0
  3267  0192  1303               	bcf	3,6	;RP1=0, select bank0
  3268  0193  0813               	movf	19,w	;volatile
  3269  0194  0088               	movwf	8	;volatile
  3270                           
  3271                           ;Luz_y_Temperatura.c: 107:             _delay((unsigned long)((250)*(4000000/4000000.0))
      +                          );
  3272  0195  3053               	movlw	83
  3273  0196  00F0               	movwf	??_isr
  3274  0197                     u169_27:	
  3275  0197  0BF0               	decfsz	??_isr,f
  3276  0198  2997               	goto	u169_27
  3277                           
  3278                           ;Luz_y_Temperatura.c: 109:         }
  3279  0199  29DC               	goto	i1l115
  3280  019A                     i1l111:	
  3281                           ;Luz_y_Temperatura.c: 110:         else if(!SSPSTATbits.D_nA && SSPSTATbits.R_nW){
  3282                           
  3283  019A  1A94               	btfsc	20,5	;volatile
  3284  019B  299D               	goto	u121_21
  3285  019C  299E               	goto	u121_20
  3286  019D                     u121_21:	
  3287  019D  29DC               	goto	i1l115
  3288  019E                     u121_20:	
  3289  019E                     i1l1660:	
  3290  019E  1D14               	btfss	20,2	;volatile
  3291  019F  29A1               	goto	u122_21
  3292  01A0  29A2               	goto	u122_20
  3293  01A1                     u122_21:	
  3294  01A1  29DC               	goto	i1l115
  3295  01A2                     u122_20:	
  3296  01A2                     i1l1662:	
  3297                           
  3298                           ;Luz_y_Temperatura.c: 111:             z = SSPBUF;
  3299  01A2  1283               	bcf	3,5	;RP0=0, select bank0
  3300  01A3  1303               	bcf	3,6	;RP1=0, select bank0
  3301  01A4  0813               	movf	19,w	;volatile
  3302  01A5  00F0               	movwf	??_isr
  3303  01A6  0870               	movf	??_isr,w
  3304  01A7  00B6               	movwf	_z
  3305  01A8                     i1l1664:	
  3306                           
  3307                           ;Luz_y_Temperatura.c: 112:             BF = 0;
  3308  01A8  1683               	bsf	3,5	;RP0=1, select bank1
  3309  01A9  1303               	bcf	3,6	;RP1=0, select bank1
  3310  01AA  1014               	bcf	20,0	;volatile
  3311  01AB                     i1l1666:	
  3312                           
  3313                           ;Luz_y_Temperatura.c: 113:             if(S0==0){
  3314  01AB  1283               	bcf	3,5	;RP0=0, select bank0
  3315  01AC  1303               	bcf	3,6	;RP1=0, select bank0
  3316  01AD  0832               	movf	_S0,w
  3317  01AE  1D03               	btfss	3,2
  3318  01AF  29B1               	goto	u123_21
  3319  01B0  29B2               	goto	u123_20
  3320  01B1                     u123_21:	
  3321  01B1  29C5               	goto	i1l1674
  3322  01B2                     u123_20:	
  3323  01B2                     i1l1668:	
  3324                           
  3325                           ;Luz_y_Temperatura.c: 114:             SSPBUF = adc;
  3326  01B2  087A               	movf	_adc,w
  3327  01B3  0093               	movwf	19	;volatile
  3328  01B4                     i1l1670:	
  3329                           
  3330                           ;Luz_y_Temperatura.c: 115:             S0 = 1;
  3331  01B4  01B2               	clrf	_S0
  3332  01B5  0AB2               	incf	_S0,f
  3333  01B6                     i1l1672:	
  3334                           
  3335                           ;Luz_y_Temperatura.c: 116:             SSPCONbits.CKP = 1;
  3336  01B6  1614               	bsf	20,4	;volatile
  3337                           
  3338                           ;Luz_y_Temperatura.c: 117:             _delay((unsigned long)((250)*(4000000/4000000.0))
      +                          );
  3339  01B7  3053               	movlw	83
  3340  01B8  00F0               	movwf	??_isr
  3341  01B9                     u170_27:	
  3342  01B9  0BF0               	decfsz	??_isr,f
  3343  01BA  29B9               	goto	u170_27
  3344  01BB                     i1l118:	
  3345                           ;Luz_y_Temperatura.c: 118:             while(SSPSTATbits.BF);
  3346                           
  3347  01BB  1683               	bsf	3,5	;RP0=1, select bank1
  3348  01BC  1303               	bcf	3,6	;RP1=0, select bank1
  3349  01BD  1814               	btfsc	20,0	;volatile
  3350  01BE  29C0               	goto	u124_21
  3351  01BF  29C1               	goto	u124_20
  3352  01C0                     u124_21:	
  3353  01C0  29BB               	goto	i1l118
  3354  01C1                     u124_20:	
  3355  01C1                     i1l120:	
  3356                           
  3357                           ;Luz_y_Temperatura.c: 119:             PIR1bits.SSPIF = 0;
  3358  01C1  1283               	bcf	3,5	;RP0=0, select bank0
  3359  01C2  1303               	bcf	3,6	;RP1=0, select bank0
  3360  01C3  118C               	bcf	12,3	;volatile
  3361                           
  3362                           ;Luz_y_Temperatura.c: 120:             return;
  3363  01C4  29DF               	goto	i1l121
  3364  01C5                     i1l1674:	
  3365                           
  3366                           ;Luz_y_Temperatura.c: 122:             if(S0==1){
  3367  01C5  0332               	decf	_S0,w
  3368  01C6  1D03               	btfss	3,2
  3369  01C7  29C9               	goto	u125_21
  3370  01C8  29CA               	goto	u125_20
  3371  01C9                     u125_21:	
  3372  01C9  29DC               	goto	i1l115
  3373  01CA                     u125_20:	
  3374  01CA                     i1l1676:	
  3375                           
  3376                           ;Luz_y_Temperatura.c: 123:             SSPBUF = T_byte1;
  3377  01CA  0879               	movf	_T_byte1,w
  3378  01CB  0093               	movwf	19	;volatile
  3379  01CC                     i1l1678:	
  3380                           
  3381                           ;Luz_y_Temperatura.c: 124:             S0 = 0;
  3382  01CC  01B2               	clrf	_S0
  3383  01CD                     i1l1680:	
  3384                           
  3385                           ;Luz_y_Temperatura.c: 125:             SSPCONbits.CKP = 1;
  3386  01CD  1614               	bsf	20,4	;volatile
  3387  01CE                     i1l1682:	
  3388                           
  3389                           ;Luz_y_Temperatura.c: 126:             _delay((unsigned long)((250)*(4000000/4000000.0))
      +                          );
  3390  01CE  3053               	movlw	83
  3391  01CF  00F0               	movwf	??_isr
  3392  01D0                     u171_27:	
  3393  01D0  0BF0               	decfsz	??_isr,f
  3394  01D1  29D0               	goto	u171_27
  3395  01D2                     i1l123:	
  3396                           ;Luz_y_Temperatura.c: 127:             while(SSPSTATbits.BF);
  3397                           
  3398  01D2  1683               	bsf	3,5	;RP0=1, select bank1
  3399  01D3  1303               	bcf	3,6	;RP1=0, select bank1
  3400  01D4  1814               	btfsc	20,0	;volatile
  3401  01D5  29D7               	goto	u126_21
  3402  01D6  29D8               	goto	u126_20
  3403  01D7                     u126_21:	
  3404  01D7  29D2               	goto	i1l123
  3405  01D8                     u126_20:	
  3406  01D8                     i1l125:	
  3407                           
  3408                           ;Luz_y_Temperatura.c: 128:             PIR1bits.SSPIF = 0;
  3409  01D8  1283               	bcf	3,5	;RP0=0, select bank0
  3410  01D9  1303               	bcf	3,6	;RP1=0, select bank0
  3411  01DA  118C               	bcf	12,3	;volatile
  3412                           
  3413                           ;Luz_y_Temperatura.c: 129:             return;
  3414  01DB  29DF               	goto	i1l121
  3415  01DC                     i1l115:	
  3416                           
  3417                           ;Luz_y_Temperatura.c: 132:         PIR1bits.SSPIF = 0;
  3418  01DC  1283               	bcf	3,5	;RP0=0, select bank0
  3419  01DD  1303               	bcf	3,6	;RP1=0, select bank0
  3420  01DE  118C               	bcf	12,3	;volatile
  3421  01DF                     i1l121:	
  3422  01DF  0872               	movf	??_isr+2,w
  3423  01E0  008A               	movwf	10
  3424  01E1  0E71               	swapf	(??_isr+1)^(0+4294967168),w
  3425  01E2  0083               	movwf	3
  3426  01E3  0EFE               	swapf	btemp,f
  3427  01E4  0E7E               	swapf	btemp,w
  3428  01E5  0009               	retfie
  3429  01E6                     __end_of_isr:	
  3430  007E                     btemp	set	126	;btemp
  3431  007E                     wtemp0	set	126
  3432                           
  3433                           	psect	intentry
  3434  0004                     __pintentry:	
  3435                           ;incstack = 0
  3436                           ; Regs used in _isr: [wreg+status,2+status,0]
  3437                           
  3438  0004                     interrupt_function:	
  3439  007E                     saved_w	set	btemp
  3440  0004  00FE               	movwf	btemp
  3441  0005  0E03               	swapf	3,w
  3442  0006  00F1               	movwf	??_isr+1
  3443  0007  080A               	movf	10,w
  3444  0008  00F2               	movwf	??_isr+2
  3445  0009  120A  118A  2963   	ljmp	_isr


Data Sizes:
    Strings     0
    Constant    0
    Data        0
    BSS         46
    Persistent  0
    Stack       0

Auto Spaces:
    Space          Size  Autos    Used
    COMMON           14      8      11
    BANK0            80     27      70
    BANK1            80      0       0
    BANK3            96      0       0
    BANK2            96      0       0

Pointer List with Targets:

    strcat@from	PTR const unsigned char  size(1) Largest target is 5
		 -> uniT_char(BANK0[5]), uniHR_char(BANK0[5]), 

    strcat@to	PTR unsigned char  size(1) Largest target is 5
		 -> decT_char(BANK0[5]), decHR_char(BANK0[5]), 

    strcat@cp	PTR unsigned char  size(1) Largest target is 5
		 -> decT_char(BANK0[5]), decHR_char(BANK0[5]), 

    utoa@buf	PTR unsigned char  size(1) Largest target is 5
		 -> uniT_char(BANK0[5]), decT_char(BANK0[5]), uniHR_char(BANK0[5]), decHR_char(BANK0[5]), 

    sp__utoa	PTR unsigned char  size(1) Largest target is 5
		 -> uniT_char(BANK0[5]), decT_char(BANK0[5]), uniHR_char(BANK0[5]), decHR_char(BANK0[5]), 

    itoa@buf	PTR unsigned char  size(1) Largest target is 5
		 -> uniT_char(BANK0[5]), decT_char(BANK0[5]), uniHR_char(BANK0[5]), decHR_char(BANK0[5]), 

    itoa@cp	PTR unsigned char  size(1) Largest target is 5
		 -> uniT_char(BANK0[5]), decT_char(BANK0[5]), uniHR_char(BANK0[5]), decHR_char(BANK0[5]), 

    sp__strcat	PTR unsigned char  size(1) Largest target is 5
		 -> decT_char(BANK0[5]), decHR_char(BANK0[5]), 

    sp__itoa	PTR unsigned char  size(1) Largest target is 5
		 -> uniT_char(BANK0[5]), decT_char(BANK0[5]), uniHR_char(BANK0[5]), decHR_char(BANK0[5]), 


Critical Paths under _main in COMMON

    _main->___awdiv
    _main->___awmod
    _utoa->___lwdiv
    _utoa->___lwmod
    _SETUP->_I2C_Slave_Init

Critical Paths under _isr in COMMON

    None.

Critical Paths under _main in BANK0

    _main->_itoa
    _itoa->_utoa
    _utoa->___lwdiv

Critical Paths under _isr in BANK0

    None.

Critical Paths under _main in BANK1

    None.

Critical Paths under _isr in BANK1

    None.

Critical Paths under _main in BANK3

    None.

Critical Paths under _isr in BANK3

    None.

Critical Paths under _main in BANK2

    None.

Critical Paths under _isr in BANK2

    None.

Call Graph Tables:

 ---------------------------------------------------------------------------------
 (Depth) Function   	        Calls       Base Space   Used Autos Params    Refs
 ---------------------------------------------------------------------------------
 (0) _main                                                 8     8      0    4637
                                             19 BANK0      8     8      0
                               _ADC1
                           _ADCSETUP
                     _CHECK_RESPONSE
                           _ReadData
                              _SETUP
                        _START_DHT11
                            ___awdiv
                            ___awmod
                            _initOsc
                               _itoa
                             _strcat
 ---------------------------------------------------------------------------------
 (1) _strcat                                               4     3      1     316
                                              3 COMMON     4     3      1
 ---------------------------------------------------------------------------------
 (1) _itoa                                                 7     3      4    2766
                                             12 BANK0      7     3      4
                               _utoa
 ---------------------------------------------------------------------------------
 (2) _utoa                                                 9     5      4    1669
                                              3 BANK0      9     5      4
                            ___lwdiv
                            ___lwmod
 ---------------------------------------------------------------------------------
 (3) ___lwmod                                              6     2      4     412
                                              3 COMMON     5     1      4
                                              0 BANK0      1     1      0
 ---------------------------------------------------------------------------------
 (3) ___lwdiv                                              8     4      4     601
                                              3 COMMON     5     1      4
                                              0 BANK0      3     3      0
 ---------------------------------------------------------------------------------
 (1) _initOsc                                              3     3      0      22
                                              3 COMMON     3     3      0
 ---------------------------------------------------------------------------------
 (1) ___awmod                                              7     3      4     793
                                              3 COMMON     5     1      4
                                              0 BANK0      2     2      0
 ---------------------------------------------------------------------------------
 (1) ___awdiv                                              9     5      4     604
                                              3 COMMON     5     1      4
                                              0 BANK0      4     4      0
 ---------------------------------------------------------------------------------
 (1) _START_DHT11                                          2     2      0       0
                                              3 COMMON     2     2      0
 ---------------------------------------------------------------------------------
 (1) _SETUP                                                0     0      0      22
                     _I2C_Slave_Init
 ---------------------------------------------------------------------------------
 (2) _I2C_Slave_Init                                       1     1      0      22
                                              3 COMMON     1     1      0
 ---------------------------------------------------------------------------------
 (1) _ReadData                                             4     4      0     114
                                              3 COMMON     4     4      0
 ---------------------------------------------------------------------------------
 (1) _CHECK_RESPONSE                                       1     1      0       0
                                              3 COMMON     1     1      0
 ---------------------------------------------------------------------------------
 (1) _ADCSETUP                                             0     0      0       0
 ---------------------------------------------------------------------------------
 (1) _ADC1                                                 2     2      0       0
                                              3 COMMON     2     2      0
 ---------------------------------------------------------------------------------
 Estimated maximum stack depth 3
 ---------------------------------------------------------------------------------
 (Depth) Function   	        Calls       Base Space   Used Autos Params    Refs
 ---------------------------------------------------------------------------------
 (4) _isr                                                  3     3      0       0
                                              0 COMMON     3     3      0
 ---------------------------------------------------------------------------------
 Estimated maximum stack depth 4
 ---------------------------------------------------------------------------------

 Call Graph Graphs:

 _main (ROOT)
   _ADC1
   _ADCSETUP
   _CHECK_RESPONSE
   _ReadData
   _SETUP
     _I2C_Slave_Init
   _START_DHT11
   ___awdiv
   ___awmod
   _initOsc
   _itoa
     _utoa
       ___lwdiv
       ___lwmod
   _strcat

 _isr (ROOT)

 Address spaces:
Name               Size   Autos  Total    Cost      Usage
BITCOMMON            E      0       0       0        0.0%
EEDATA             100      0       0       0        0.0%
NULL                 0      0       0       0        0.0%
CODE                 0      0       0       0        0.0%
COMMON               E      8       B       1       78.6%
BITSFR0              0      0       0       1        0.0%
SFR0                 0      0       0       1        0.0%
BITSFR1              0      0       0       2        0.0%
SFR1                 0      0       0       2        0.0%
STACK                0      0       0       2        0.0%
ABS                  0      0      51       3        0.0%
BITBANK0            50      0       0       4        0.0%
BITSFR3              0      0       0       4        0.0%
SFR3                 0      0       0       4        0.0%
BANK0               50     1B      46       5       87.5%
BITSFR2              0      0       0       5        0.0%
SFR2                 0      0       0       5        0.0%
BITBANK1            50      0       0       6        0.0%
BANK1               50      0       0       7        0.0%
BITBANK3            60      0       0       8        0.0%
BANK3               60      0       0       9        0.0%
BITBANK2            60      0       0      10        0.0%
BANK2               60      0       0      11        0.0%
DATA                 0      0      51      12        0.0%


Microchip Technology PIC Macro Assembler V2.10 build 88905656 
Symbol Table                                                                                   Wed Mar 18 01:16:45 2020

                       _z 0036               __CFG_CP$OFF 0000               _SSPSTATbits 0094  
                      _BF 04A0                        _S0 0032              ___awdiv@sign 004C  
                      fsr 0004                       l140 04ED                       l143 0507  
                     l161 0402                       l153 03C2                       l170 02CF  
                     l171 02D5                       l148 04D0                       l172 02DB  
                     l253 0521                       l173 02E1                       l158 03F3  
                     l174 02E7                       l175 02ED                       l167 02C3  
                     l192 052E                       l176 02F3                       l168 031B  
                     l505 037A                       l177 031F                       l169 02C9  
                     l195 04A9                       l611 03C0                       l621 043E  
                     l198 04B1                       l492 02C0                       l804 0467  
                     l793 0240                       l795 0257                       l787 048D  
                     _GIE 005F              __CFG_CPD$OFF 0000                       u910 03F7  
                     u911 03F6                       u840 04AD                       u920 0401  
                     u904 03EC                       u841 04AC                       u921 0400  
                     u905 03EA                       u850 04BF                       u851 04BE  
                     u860 04CA                       u940 0451                       u861 04C9  
                     u941 0450                       u870 03C8                       u950 0467  
                     u871 03C7                       u951 0466                       u880 03D3  
                     u960 025F                       u881 03D2                       u961 025E  
                     u970 026A                       u971 0269                       u980 027B  
                     u981 027A                       u894 03DB                       u895 03D9  
                     u995 027F                       _adc 007A                       _isr 0163  
                     fsr0 0004                       _sum 0020                       indf 0000  
            ___awmod@sign 004C              __CFG_LVP$OFF 0000                      l1500 04C4  
                    l1420 04D1                      l1502 04CA                      l1430 04DF  
                    l1422 04D5                      l1504 04CC                      l1520 03F7  
                    l1512 03C8                      l1440 04E6                      l1432 04E0  
                    l1424 04D6                      l1522 03FB                      l1514 03CD  
                    l1506 03C1                      l1442 04E7                      l1434 04E3  
                    l1426 04D9                      l1460 052C                      l1524 0401  
                    l1516 03D3                      l1380 0518                      l1436 04E4  
                    l1428 04DB                      l1444 02C2                      l1470 049B  
                    l1462 052D                      l1454 0522                      l1518 03E4  
                    l1382 0519                      l1438 04E5                      l1550 045A  
                    l1542 0440                      l1480 04AD                      l1472 049C  
                    l1464 048E                      l1456 0528                      l1384 051A  
                    l1376 0509                      l1560 0266                      l1552 0258  
                    l1448 02F9                      l1800 020A                      l1544 0445  
                    l1474 04A4                      l1466 0497                      l1458 0529  
                    l1386 051B                      l1378 0517                      l1490 0504  
                    l1570 027B                      l1562 026A                      l1554 025B  
                    l1810 023C                      l1802 020E                      l1546 0449  
                    l1476 04A7                      l1468 049A                      l1492 04B2  
                    l1388 051E                      l1484 04EE                      l1580 029E  
                    l1572 027E                      l1564 026F                      l1556 025F  
                    l1812 0244                      l1804 0210                      l1548 0452  
                    l1900 00C7                      l1478 04A8                      l1494 04B5  
                    l1486 04F4                      l1590 02B7                      l1582 02A4  
                    l1574 0285                      l1566 0273                      l1558 0264  
                    l1750 0388                      l1814 024B                      l1806 0223  
                    l1830 047A                      l1822 046B                      l1910 0147  
                    l1902 00D5                      _ADC1 048E                      l1496 04B9  
                    l1488 04FC                      l1592 02BC                      l1584 02A5  
                    l1576 0289                      l1568 0275                      l1840 0327  
                    l1760 03AE                      l1752 038F                      l1744 037B  
                    l1816 024D                      l1808 0236                      l1832 047F  
                    l1824 046B                      l1912 0153                      l1904 00FB  
                    l1498 04BF                      l1586 02AC                      l1578 028D  
                    l1850 033D                      l1842 032C                      l1762 03AF  
                    l1754 0393                      l1746 037F                      l1770 0403  
                    l1818 0253                      l1826 046F                      l1906 0113  
                    l1588 02B2                      l1860 0359                      l1852 0340  
                    l1844 032E                      l1836 0320                      l1764 03B6  
                    l1756 0397                      l1748 0385                      l1780 041D  
                    l1772 0409                      l1828 0476                      l1908 0139  
                    l1870 0376                      l1862 035F                      l1854 0347  
                    l1846 0332                      l1838 0323                      l1934 0301  
                    l1758 03A8                      l1766 03BC                      l1782 0427  
                    l1774 040E                      l1864 0366                      l1856 034B  
                    l1848 0337                      l1784 042D                      l1776 0415  
                    l1792 01E9                      l1880 002F                      l1858 034F  
                    l1866 036C                      l1786 0434                      l1778 0419  
                    l1794 01ED                      l1890 0046                      l1882 0034  
                    l1874 001F                      l1868 0371                      l1788 043A  
                    l1796 0200                      l1892 0050                      l1884 003A  
                    l1876 0024                      l1798 0204                      l1894 0057  
                    l1886 003D                      l1878 002A                      l1896 008C  
                    l1888 0043                      l1898 00B1                      ?_isr 0070  
                    u1000 028D                      u1001 028C                      u1020 029E  
                    u1021 029D                      u1015 028E                      u1040 02B2  
                    u1041 02B1                      u1025 029A                      u1050 02B7  
                    u1051 02B6                      u1035 02A6                      u1310 0385  
                    u1311 0384                      u1400 041D                      u1401 041C  
                    u1330 0397                      u1410 0427                      u1331 0396  
                    u1411 0426                      u1500 033D                      u1501 033C  
                    u1325 0389                      u1350 03A8                      u1430 043A  
                    u1351 03A7                      u1431 0439                      u1415 0423  
                    u1520 034F                      u1440 020A                      u1600 00B1  
                    u1521 034E                      u1345 0398                      u1425 042E  
                    u1441 0209                      u1601 00B0                      u1530 0359  
                    u1370 03BC                      u1450 023C                      u1531 0358  
                    u1515 0341                      u1371 03BB                      u1355 03A4  
                    u1451 023B                      u1380 0409                      u1460 0253  
                    u1365 03B0                      u1381 0408                      u1461 0252  
                    u1605 00AD                      u1550 036C                      u1470 046F  
                    u1551 036B                      u1535 0355                      u1471 046E  
                    u1560 0371                      u1480 0327                      u1617 04F8  
                    u1561 0370                      u1545 0360                      u1481 0326  
                    u1490 0332                      u1570 003A                      u1627 0501  
                    u1491 0331                      u1395 040F                      u1571 0039  
                    u1580 0043                      u1637 03CA                      u1581 0042  
                    u1590 0057                      u1647 04B7                      u1591 0056  
                    u1657 04C1                      u1667 04CE                      u1677 0492  
                    u1687 049F                      _PEIE 005E              __CFG_WRT$OFF 0000  
        __end_of_ADCSETUP 052F                      _decT 002E                      _main 001F  
                    _itoa 0468                      _uniT 0030                      btemp 007E  
                    _utoa 01E6                      start 000C             __CFG_IESO$OFF 0000  
                   ?_ADC1 0070                     ??_isr 0070                     ?_main 0070  
                   ?_itoa 0057           __end_of___awdiv 02C1             __CFG_WDTE$OFF 0000  
         __end_of___awmod 037B                     _ANSEL 0188                     ?_utoa 004E  
         ___awdiv@divisor 0073           __end_of___lwdiv 03C1                     i1l111 019A  
                   i1l120 01C1                     i1l112 018B                     i1l121 01DF  
                   i1l123 01D2                     i1l115 01DC                     i1l125 01D8  
                   i1l118 01BB           __end_of___lwmod 043F           ___awdiv@counter 004B  
                   _SETUP 04D1                     _PORTA 0005                     _PORTB 0006  
                   _PORTC 0007                     _PORTD 0008                     _PORTE 0009  
                   _TRISA 0085                     _TRISB 0086                     _TRISC 0087  
                   _TRISD 0088                     _SSPIE 0463                     _TRISE 0089  
                   _SSPIF 0063            __CFG_FCMEN$OFF 0000                     _decHR 002A  
                   _check 0035           __end_of_initOsc 0320                     _uniHR 002C  
          __CFG_BOREN$OFF 0000                     pclath 000A                     utoa@c 0055  
                   utoa@v 0053                     status 0003                     wtemp0 007E  
            __end_of_ADC1 04B2            __CFG_MCLRE$OFF 0000           __initialization 000F  
            __end_of_main 0163              __end_of_itoa 048E              __end_of_utoa 0258  
                  ??_ADC1 0073          __end_of_ReadData 0403                    ??_main 005E  
                  ??_itoa 005B                    ??_utoa 0052                    ?_SETUP 0070  
                  _ADRESH 001E          ___awdiv@dividend 0075                    _ANSELH 0189  
                  u120_20 0191                    u120_21 0190                    u121_20 019E  
                  i1l1640 0172                    u121_21 019D                    i1l1650 017F  
                  i1l1642 0176                    i1l1634 0163                    i1l1660 019E  
                  i1l1652 0183                    i1l1644 0177                    i1l1636 0169  
                  i1l1670 01B4                    i1l1662 01A2                    i1l1654 0189  
                  i1l1646 0178                    i1l1638 016E                    i1l1680 01CD  
                  i1l1672 01B6                    i1l1664 01A8                    u122_20 01A2  
                  i1l1656 018A                    i1l1648 0179                    u122_21 01A1  
                  i1l1682 01CE                    i1l1674 01C5                    i1l1666 01AB  
                  i1l1658 0191                    i1l1676 01CA                    i1l1668 01B2  
                  i1l1678 01CC                    u123_20 01B2                    u115_20 0169  
                  u123_21 01B1                    u115_21 0168                    u124_20 01C1  
                  u116_20 016E                    u124_21 01C0                    u116_21 016D  
                  u125_20 01CA                    u117_20 0172                    u125_21 01C9  
                  u117_21 0171                    u126_20 01D8                    u118_20 017F  
                  u126_21 01D7                    u118_21 017E                    u119_20 0183  
                  u119_21 0182                    u170_27 01B9                    u171_27 01D0  
                  u169_27 0197               initOsc@frec 0075                    _SSPADD 0093  
                  _TRISC3 043B                    _TRISC4 043C                    _SSPBUF 0013  
                  _SSPCON 0014            __CFG_PWRTE$OFF 0000                 ??___awdiv 0077  
               ??___awmod 0077                 ??___lwdiv 0077                 ??___lwmod 0077  
        ___awdiv@quotient 004D           ___awmod@divisor 0073           ___awmod@counter 004B  
                  _strcat 043F                 ?_ADCSETUP 0070              ?_START_DHT11 0070  
               ??_initOsc 0073                    saved_w 007E   __end_of__initialization 001B  
           __end_of_SETUP 04EE                _decHR_char 0037            __pcstackCOMMON 0070  
 __size_of_I2C_Slave_Init 001A                ??_ADCSETUP 0073                   ??_SETUP 0074  
   I2C_Slave_Init@address 0073                __pbssBANK0 0020                 ?_ReadData 0070  
 __size_of_CHECK_RESPONSE 001F                __pmaintext 001F                __pintentry 0004  
                 ?_strcat 0073                   _SSPCON2 0091                   _SSPSTAT 0094  
              ??_ReadData 0073                   _T_byte1 0079                   _T_byte2 0034  
                 ___awdiv 0258                   ___awmod 0320                   ___lwdiv 037B  
                 ___lwmod 0403                   __ptext1 043F                   __ptext2 0468  
                 __ptext3 01E6                   __ptext4 0403                   __ptext5 037B  
                 __ptext6 02C1                   __ptext7 0320                   __ptext8 0258  
                 __ptext9 04EE           __size_of_strcat 0029                   _initOsc 02C1  
            __size_of_isr 0083          ___awmod@dividend 0075      __size_of_START_DHT11 001A  
                 clrloop0 0530      end_of_initialization 001B                   itoa@buf 005D  
                 itoa@val 0057                _uniHR_char 003C            _I2C_Slave_Init 0508  
                 utoa@buf 0056                   utoa@val 004E                 _PORTDbits 0008  
       __size_of_ADCSETUP 000D                 _TRISCbits 0087                 _TRISDbits 0088  
          _CHECK_RESPONSE 04B2                 ReadData@i 0075                 ReadData@j 0076  
  __end_of_I2C_Slave_Init 0522            __end_of_strcat 0468       start_initialization 000F  
             __end_of_isr 01E6    __end_of_CHECK_RESPONSE 04D1         __size_of_ReadData 0042  
__CFG_FOSC$INTRC_NOCLKOUT 0000           ?_I2C_Slave_Init 0070                  ??_strcat 0074  
             __pbssCOMMON 0078                 ___latbits 0002             __pcstackBANK0 004B  
               _decHR_int 0022                 _decT_char 0041           ?_CHECK_RESPONSE 0070  
        ___lwdiv@dividend 0075                  ?___awdiv 0073                  ?___awmod 0073  
                ?___lwdiv 0073                  ?___lwmod 0073                  _ADCSETUP 0522  
                ?_initOsc 0070            __size_of_SETUP 001D          ___lwdiv@quotient 004C  
       interrupt_function 0004                 clear_ram0 052F                 _uniHR_int 0024  
                _PIR1bits 000C                 _uniT_char 0046                _ADCON0bits 001F  
              _ADCON1bits 009F             ??_START_DHT11 0073                  _RH_byte1 0078  
                _RH_byte2 0033                  _ReadData 03C1          __size_of___awdiv 0069  
        __size_of___awmod 005B          __size_of___lwdiv 0046          __size_of___lwmod 003C  
                _decT_int 0026                strcat@from 0073          __size_of_initOsc 005F  
         ___lwdiv@divisor 0073           ___lwdiv@counter 004B                  __ptext10 04D1  
                __ptext11 0508                  __ptext12 03C1                  __ptext13 04B2  
                __ptext14 0522                  __ptext15 048E                  __ptext16 0163  
       __CFG_BOR4V$BOR40V 0000       __end_of_START_DHT11 0508             __size_of_ADC1 0024  
        ??_I2C_Slave_Init 0073             __size_of_main 0144             __size_of_itoa 0026  
           __size_of_utoa 0072                  _uniT_int 0028          ??_CHECK_RESPONSE 0073  
                itoa@base 0059                  intlevel1 0000          ___lwmod@dividend 0075  
              _OSCCONbits 008F                  utoa@base 0050               _START_DHT11 04EE  
                strcat@cp 0076                  strcat@to 0075           ___lwmod@divisor 0073  
         ___lwmod@counter 004B               _SSPCON2bits 0091                _SSPCONbits 0014  
